(dp0
S'Jill-Uchiyama'
p1
(lp2
(dp3
S'avg_word_length'
p4
F4.28021978021978
sS'standard_dev'
p5
F2.3118291022154955
sS'no_of_sentences'
p6
I9
sS'no_of_words'
p7
I182
sS'key'
p8
S'Answer1.txt'
p9
sa(dp10
g4
F4.044973544973545
sg5
F1.9735254690725157
sg6
I22
sg7
I378
sg8
S'Answer2.txt'
p11
sa(dp12
g4
F4.95593220338983
sg5
F2.663263652652366
sg6
I30
sg7
I295
sg8
S'Answer3.txt'
p13
sa(dp14
g4
F4.301754385964912
sg5
F2.1667739159477724
sg6
I20
sg7
I285
sg8
S'Answer4.txt'
p15
sa(dp16
g4
F5.003236245954692
sg5
F2.638400002891111
sg6
I24
sg7
I309
sg8
S'Answer5.txt'
p17
sa(dp18
g4
F4.370967741935484
sg5
F2.3139400204660117
sg6
I18
sg7
I248
sg8
S'Answer6.txt'
p19
sa(dp20
g4
F4.7489539748953975
sg5
F3.4147950547088644
sg6
I14
sg7
I239
sg8
S'Answer7.txt'
p21
sa(dp22
g4
F4.408510638297872
sg5
F2.3088939773889567
sg6
I14
sg7
I235
sg8
S'Answer8.txt'
p23
sa(dp24
g4
F4.46875
sg5
F2.4598997481266047
sg6
I9
sg7
I192
sg8
S'Answer9.txt'
p25
sa(dp26
g4
F3.841666666666667
sg5
F2.0179575758121806
sg6
I16
sg7
I360
sg8
S'Answer10.txt'
p27
sa(dp28
g4
F4.918367346938775
sg5
F2.9784034532551744
sg6
I6
sg7
I98
sg8
S'Answer11.txt'
p29
sa(dp30
g4
F4.629139072847682
sg5
F2.54656213923853
sg6
I9
sg7
I151
sg8
S'Answer12.txt'
p31
sa(dp32
g4
F4.883268482490273
sg5
F2.7746055592875187
sg6
I20
sg7
I514
sg8
S'Answer13.txt'
p33
sa(dp34
g4
F4.34640522875817
sg5
F2.5151053758194495
sg6
I40
sg7
I765
sg8
S'Answer14.txt'
p35
sa(dp36
g4
F4.687763713080169
sg5
F2.838028758717524
sg6
I12
sg7
I237
sg8
S'Answer15.txt'
p37
sa(dp38
g4
F4.465596330275229
sg5
F2.564079651825184
sg6
I15
sg7
I436
sg8
S'Answer16.txt'
p39
sa(dp40
g4
F5.091954022988506
sg5
F2.973570105159776
sg6
I8
sg7
I174
sg8
S'Answer17.txt'
p41
sa(dp42
g4
F4.4950634696756
sg5
F2.5129376720291625
sg6
I36
sg7
I709
sg8
S'Answer20.txt'
p43
sa(dp44
g4
F4.376770538243626
sg5
F2.4279355751294207
sg6
I22
sg7
I353
sg8
S'Answer22.txt'
p45
sa(dp46
g4
F5.111940298507463
sg5
F3.0704670454236656
sg6
I7
sg7
I134
sg8
S'Answer23.txt'
p47
sa(dp48
g4
F4.615384615384615
sg5
F2.657745184824088
sg6
I6
sg7
I104
sg8
S'Answer24.txt'
p49
sa(dp50
g4
F4.755050505050505
sg5
F2.7548120886757235
sg6
I22
sg7
I396
sg8
S'Answer25.txt'
p51
sa(dp52
g4
F4.614130434782608
sg5
F3.026695770528414
sg6
I10
sg7
I184
sg8
S'Answer26.txt'
p53
sa(dp54
g4
F4.391304347826087
sg5
F3.0346663322270055
sg6
I6
sg7
I138
sg8
S'Answer27.txt'
p55
sa(dp56
g4
F4.693023255813953
sg5
F2.7951282658788665
sg6
I16
sg7
I215
sg8
S'Answer29.txt'
p57
sa(dp58
g4
F4.467479674796748
sg5
F2.4187948331160345
sg6
I13
sg7
I246
sg8
S'Answer30.txt'
p59
sa(dp60
g4
F4.653846153846154
sg5
F2.8738995100583784
sg6
I6
sg7
I182
sg8
S'Answer33.txt'
p61
sa(dp62
g4
F4.253561253561253
sg5
F2.372944033442241
sg6
I18
sg7
I351
sg8
S'Answer34.txt'
p63
sa(dp64
g4
F4.613207547169812
sg5
F2.5423609392852575
sg6
I4
sg7
I106
sg8
S'Answer36.txt'
p65
sa(dp66
g4
F4.593023255813954
sg5
F2.3863853515245177
sg6
I8
sg7
I172
sg8
S'Answer37.txt'
p67
sa(dp68
g4
F4.638054363376252
sg5
F2.7262901039599936
sg6
I32
sg7
I699
sg8
S'Answer39.txt'
p69
sa(dp70
g4
F4.50354609929078
sg5
F2.432417335048919
sg6
I14
sg7
I282
sg8
S'Answer40.txt'
p71
sa(dp72
g4
F4.323684210526316
sg5
F2.3380079476842894
sg6
I18
sg7
I380
sg8
S'Answer41.txt'
p73
sa(dp74
g4
F4.190243902439025
sg5
F2.3659994926136774
sg6
I8
sg7
I205
sg8
S'Answer42.txt'
p75
sa(dp76
g4
F4.862068965517241
sg5
F2.7298790078577864
sg6
I5
sg7
I87
sg8
S'Answer43.txt'
p77
sa(dp78
g4
F4.569444444444445
sg5
F2.8796527032539943
sg6
I26
sg7
I720
sg8
S'Answer44.txt'
p79
sa(dp80
g4
F4.286713286713287
sg5
F2.4066410960814157
sg6
I11
sg7
I286
sg8
S'Answer45.txt'
p81
sa(dp82
g4
F4.688
sg5
F2.8465164675441446
sg6
I5
sg7
I125
sg8
S'Answer46.txt'
p83
sa(dp84
g4
F4.326530612244898
sg5
F2.430428604473673
sg6
I11
sg7
I147
sg8
S'Answer47.txt'
p85
sa(dp86
g4
F4.388646288209607
sg5
F2.490515178242025
sg6
I12
sg7
I229
sg8
S'Answer48.txt'
p87
sa(dp88
g4
F4.580645161290323
sg5
F2.6612414462764957
sg6
I5
sg7
I124
sg8
S'Answer49.txt'
p89
sa(dp90
g4
F4.0588235294117645
sg5
F2.2448430994282504
sg6
I10
sg7
I187
sg8
S'Answer50.txt'
p91
sasS'Jeff-Lee-36'
p92
(lp93
(dp94
g4
F4.6873889875666075
sg5
F2.5914809408533026
sg6
I22
sg7
I563
sg8
S'Answer1.txt'
p95
sa(dp96
g4
F4.629310344827586
sg5
F2.2876360800443267
sg6
I9
sg7
I116
sg8
S'Answer3.txt'
p97
sa(dp98
g4
F4.290697674418604
sg5
F2.6297328499464765
sg6
I6
sg7
I172
sg8
S'Answer4.txt'
p99
sa(dp100
g4
F5.1940298507462686
sg5
F3.434846912533623
sg6
I4
sg7
I134
sg8
S'Answer5.txt'
p101
sa(dp102
g4
F4.5
sg5
F2.4744145313037733
sg6
I4
sg7
I110
sg8
S'Answer6.txt'
p103
sa(dp104
g4
F4.764227642276423
sg5
F2.818583224837163
sg6
I12
sg7
I492
sg8
S'Answer7.txt'
p105
sa(dp106
g4
F4.4
sg5
F2.710328827456398
sg6
I5
sg7
I170
sg8
S'Answer9.txt'
p107
sa(dp108
g4
F4.691460055096419
sg5
F2.582758858814459
sg6
I18
sg7
I363
sg8
S'Answer10.txt'
p109
sa(dp110
g4
F4.673076923076923
sg5
F2.8180131697442548
sg6
I8
sg7
I208
sg8
S'Answer11.txt'
p111
sa(dp112
g4
F4.535714285714286
sg5
F2.5083025400962025
sg6
I5
sg7
I140
sg8
S'Answer13.txt'
p113
sa(dp114
g4
F4.93006993006993
sg5
F3.0281900469000873
sg6
I3
sg7
I143
sg8
S'Answer14.txt'
p115
sa(dp116
g4
F4.844444444444444
sg5
F2.8059900653625967
sg6
I6
sg7
I225
sg8
S'Answer15.txt'
p117
sa(dp118
g4
F4.32994923857868
sg5
F2.21388477212011
sg6
I5
sg7
I197
sg8
S'Answer16.txt'
p119
sa(dp120
g4
F4.673151750972763
sg5
F2.620292515736026
sg6
I10
sg7
I257
sg8
S'Answer17.txt'
p121
sa(dp122
g4
F4.5962962962962965
sg5
F2.6012790986830985
sg6
I7
sg7
I270
sg8
S'Answer18.txt'
p123
sa(dp124
g4
F4.472549019607843
sg5
F2.421762316616835
sg6
I12
sg7
I510
sg8
S'Answer19.txt'
p125
sa(dp126
g4
F5.458333333333333
sg5
F4.1681247448809495
sg6
I5
sg7
I96
sg8
S'Answer21.txt'
p127
sa(dp128
g4
F5.0
sg5
F2.979093821953246
sg6
I10
sg7
I176
sg8
S'Answer22.txt'
p129
sa(dp130
g4
F4.6305555555555555
sg5
F2.484319652500954
sg6
I12
sg7
I360
sg8
S'Answer23.txt'
p131
sa(dp132
g4
F4.310344827586207
sg5
F2.5085550919935646
sg6
I7
sg7
I203
sg8
S'Answer24.txt'
p133
sa(dp134
g4
F4.7176470588235295
sg5
F2.537306421272867
sg6
I6
sg7
I170
sg8
S'Answer25.txt'
p135
sa(dp136
g4
F5.071698113207547
sg5
F3.0229547808357244
sg6
I5
sg7
I265
sg8
S'Answer26.txt'
p137
sa(dp138
g4
F5.802469135802469
sg5
F4.39533915062847
sg6
I1
sg7
I81
sg8
S'Answer27.txt'
p139
sa(dp140
g4
F4.620320855614973
sg5
F2.5353572254591716
sg6
I15
sg7
I187
sg8
S'Answer28.txt'
p141
sa(dp142
g4
F5.448559670781893
sg5
F3.3160707299371
sg6
I6
sg7
I243
sg8
S'Answer29.txt'
p143
sa(dp144
g4
F5.207272727272727
sg5
F3.1259532099944125
sg6
I4
sg7
I275
sg8
S'Answer30.txt'
p145
sa(dp146
g4
F4.3090909090909095
sg5
F1.9246981087737782
sg6
I5
sg7
I110
sg8
S'Answer31.txt'
p147
sa(dp148
g4
F5.051546391752577
sg5
F2.7484621155157165
sg6
I2
sg7
I97
sg8
S'Answer33.txt'
p149
sa(dp150
g4
F4.7696969696969695
sg5
F2.71945681390937
sg6
I9
sg7
I330
sg8
S'Answer34.txt'
p151
sa(dp152
g4
F4.726495726495727
sg5
F2.675063483946525
sg6
I17
sg7
I351
sg8
S'Answer35.txt'
p153
sa(dp154
g4
F4.958083832335329
sg5
F2.6589658369963045
sg6
I8
sg7
I167
sg8
S'Answer36.txt'
p155
sa(dp156
g4
F7.333333333333333
sg5
F5.0403390680733935
sg6
I1
sg7
I93
sg8
S'Answer37.txt'
p157
sa(dp158
g4
F4.560327198364008
sg5
F2.6701678246806195
sg6
I21
sg7
I489
sg8
S'Answer39.txt'
p159
sa(dp160
g4
F4.716186252771618
sg5
F2.680996538567521
sg6
I26
sg7
I451
sg8
S'Answer40.txt'
p161
sag160
a(dp162
g4
F4.832764505119454
sg5
F2.6365800715230336
sg6
I10
sg7
I293
sg8
S'Answer41.txt'
p163
sa(dp164
g4
F4.436507936507937
sg5
F2.6170868080841556
sg6
I8
sg7
I126
sg8
S'Answer42.txt'
p165
sa(dp166
g4
F4.517857142857143
sg5
F2.4237741483993465
sg6
I5
sg7
I112
sg8
S'Answer43.txt'
p167
sa(dp168
g4
F4.646464646464646
sg5
F2.8319240629970603
sg6
I9
sg7
I297
sg8
S'Answer44.txt'
p169
sa(dp170
g4
F5.425414364640884
sg5
F3.141456091570161
sg6
I4
sg7
I362
sg8
S'Answer45.txt'
p171
sa(dp172
g4
F5.006711409395973
sg5
F2.690184272927844
sg6
I10
sg7
I447
sg8
S'Answer46.txt'
p173
sa(dp174
g4
F4.797235023041475
sg5
F2.738257999354961
sg6
I7
sg7
I217
sg8
S'Answer47.txt'
p175
sa(dp176
g4
F5.166666666666667
sg5
F3.006800570906327
sg6
I6
sg7
I102
sg8
S'Answer48.txt'
p177
sasS'Marcus-Geduld'
p178
(lp179
(dp180
g4
F5.011363636363637
sg5
F2.820357481298082
sg6
I12
sg7
I176
sg8
S'Answer4.txt'
p181
sa(dp182
g4
F4.516260162601626
sg5
F2.3594085652645824
sg6
I10
sg7
I246
sg8
S'Answer5.txt'
p183
sa(dp184
g4
F4.808333333333334
sg5
F2.6779837979760486
sg6
I8
sg7
I120
sg8
S'Answer6.txt'
p185
sa(dp186
g4
F5.144578313253012
sg5
F2.630371864866542
sg6
I5
sg7
I83
sg8
S'Answer7.txt'
p187
sa(dp188
g4
F4.4271186440677965
sg5
F2.551292826709332
sg6
I16
sg7
I295
sg8
S'Answer8.txt'
p189
sa(dp190
g4
F4.53125
sg5
F2.4914567567656745
sg6
I6
sg7
I96
sg8
S'Answer16.txt'
p191
sa(dp192
g4
F4.9714285714285715
sg5
F2.870540018881466
sg6
I15
sg7
I245
sg8
S'Answer18.txt'
p193
sa(dp194
g4
F4.522123893805309
sg5
F2.6242482113770818
sg6
I8
sg7
I113
sg8
S'Answer21.txt'
p195
sa(dp196
g4
F4.391566265060241
sg5
F2.452621160893371
sg6
I46
sg7
I664
sg8
S'Answer22.txt'
p197
sag196
a(dp198
g4
F4.359223300970874
sg5
F2.814161031170743
sg6
I10
sg7
I103
sg8
S'Answer23.txt'
p199
sa(dp200
g4
F4.555555555555555
sg5
F2.2881875948304162
sg6
I10
sg7
I180
sg8
S'Answer24.txt'
p201
sa(dp202
g4
F4.755395683453237
sg5
F2.5722417695723028
sg6
I11
sg7
I139
sg8
S'Answer25.txt'
p203
sa(dp204
g4
F4.152709359605911
sg5
F2.513280988930856
sg6
I14
sg7
I203
sg8
S'Answer26.txt'
p205
sa(dp206
g4
F4.219512195121951
sg5
F2.542441644983017
sg6
I12
sg7
I287
sg8
S'Answer27.txt'
p207
sa(dp208
g4
F4.737254901960784
sg5
F2.8459782965505416
sg6
I38
sg7
I510
sg8
S'Answer28.txt'
p209
sa(dp210
g4
F5.328888888888889
sg5
F2.9361064332980713
sg6
I6
sg7
I225
sg8
S'Answer31.txt'
p211
sa(dp212
g4
F4.968680089485459
sg5
F3.029150515237894
sg6
I25
sg7
I447
sg8
S'Answer36.txt'
p213
sag212
a(dp214
g4
F4.491935483870968
sg5
F2.434615846169231
sg6
I24
sg7
I372
sg8
S'Answer38.txt'
p215
sa(dp216
g4
F4.508038585209003
sg5
F2.740508263428436
sg6
I15
sg7
I311
sg8
S'Answer39.txt'
p217
sa(dp218
g4
F4.475675675675675
sg5
F2.906786598160615
sg6
I28
sg7
I370
sg8
S'Answer41.txt'
p219
sa(dp220
g4
F5.197368421052632
sg5
F2.7650056478580605
sg6
I11
sg7
I152
sg8
S'Answer42.txt'
p221
sa(dp222
g4
F4.656565656565657
sg5
F2.5826210793743254
sg6
I8
sg7
I99
sg8
S'Answer43.txt'
p223
sa(dp224
g4
F4.96875
sg5
F3.193264803326944
sg6
I8
sg7
I96
sg8
S'Answer44.txt'
p225
sa(dp226
g4
F5.564885496183206
sg5
F3.3591602836596475
sg6
I8
sg7
I131
sg8
S'Answer45.txt'
p227
sa(dp228
g4
F5.2023809523809526
sg5
F3.1273743814167743
sg6
I5
sg7
I84
sg8
S'Answer48.txt'
p229
sasS'Simon-Crump'
p230
(lp231
(dp232
g4
F5.673333333333333
sg5
F3.373418971244982
sg6
I4
sg7
I150
sg8
S'Answer1.txt'
p233
sa(dp234
g4
F5.315789473684211
sg5
F2.971970362466274
sg6
I4
sg7
I133
sg8
S'Answer2.txt'
p235
sa(dp236
g4
F5.2976190476190474
sg5
F3.4079031463460483
sg6
I5
sg7
I168
sg8
S'Answer3.txt'
p237
sa(dp238
g4
F4.1938775510204085
sg5
F2.4975831716465327
sg6
I3
sg7
I98
sg8
S'Answer4.txt'
p239
sa(dp240
g4
F5.588383838383838
sg5
F3.3211544807478215
sg6
I14
sg7
I396
sg8
S'Answer5.txt'
p241
sa(dp242
g4
F4.308641975308642
sg5
F2.2670041976829576
sg6
I7
sg7
I162
sg8
S'Answer6.txt'
p243
sa(dp244
g4
F5.061696658097686
sg5
F2.980018840283801
sg6
I13
sg7
I389
sg8
S'Answer7.txt'
p245
sa(dp246
g4
F4.278350515463917
sg5
F2.311225860186594
sg6
I11
sg7
I291
sg8
S'Answer8.txt'
p247
sa(dp248
g4
F4.803030303030303
sg5
F2.6867784977648266
sg6
I5
sg7
I132
sg8
S'Answer9.txt'
p249
sa(dp250
g4
F5.122302158273381
sg5
F3.3467700130440945
sg6
I5
sg7
I139
sg8
S'Answer10.txt'
p251
sa(dp252
g4
F5.361702127659575
sg5
F3.3480736405822134
sg6
I3
sg7
I94
sg8
S'Answer11.txt'
p253
sa(dp254
g4
F4.631147540983607
sg5
F2.8934658430313336
sg6
I7
sg7
I244
sg8
S'Answer12.txt'
p255
sa(dp256
g4
F4.7612903225806456
sg5
F2.5880217154389884
sg6
I6
sg7
I155
sg8
S'Answer13.txt'
p257
sa(dp258
g4
F4.648936170212766
sg5
F2.7664688561586903
sg6
I2
sg7
I94
sg8
S'Answer14.txt'
p259
sa(dp260
g4
F5.099526066350711
sg5
F2.8806512170262244
sg6
I5
sg7
I211
sg8
S'Answer15.txt'
p261
sa(dp262
g4
F4.744186046511628
sg5
F2.698776839700344
sg6
I6
sg7
I172
sg8
S'Answer16.txt'
p263
sa(dp264
g4
F4.760416666666667
sg5
F2.566794335298841
sg6
I8
sg7
I192
sg8
S'Answer17.txt'
p265
sa(dp266
g4
F4.734513274336283
sg5
F2.5590986352708303
sg6
I4
sg7
I113
sg8
S'Answer18.txt'
p267
sa(dp268
g4
F5.3795918367346935
sg5
F3.325656577299802
sg6
I12
sg7
I245
sg8
S'Answer19.txt'
p269
sa(dp270
g4
F4.697560975609756
sg5
F3.0164175007722167
sg6
I11
sg7
I205
sg8
S'Answer20.txt'
p271
sa(dp272
g4
F4.878048780487805
sg5
F2.986651511250178
sg6
I5
sg7
I123
sg8
S'Answer21.txt'
p273
sa(dp274
g4
F5.151658767772512
sg5
F2.6206859557797504
sg6
I7
sg7
I211
sg8
S'Answer22.txt'
p275
sa(dp276
g4
F4.639024390243902
sg5
F2.7896042248162103
sg6
I6
sg7
I205
sg8
S'Answer23.txt'
p277
sa(dp278
g4
F4.704735376044568
sg5
F2.9690614284027106
sg6
I11
sg7
I359
sg8
S'Answer24.txt'
p279
sa(dp280
g4
F4.614349775784754
sg5
F2.65322722580212
sg6
I15
sg7
I446
sg8
S'Answer25.txt'
p281
sag280
a(dp282
g4
F5.0926640926640925
sg5
F2.9830771483933605
sg6
I14
sg7
I518
sg8
S'Answer27.txt'
p283
sa(dp284
g4
F5.307142857142857
sg5
F2.9565820724310035
sg6
I3
sg7
I140
sg8
S'Answer28.txt'
p285
sa(dp286
g4
F4.983870967741935
sg5
F2.8941464960053294
sg6
I12
sg7
I372
sg8
S'Answer29.txt'
p287
sa(dp288
g4
F4.675
sg5
F2.6531820518011964
sg6
I8
sg7
I200
sg8
S'Answer30.txt'
p289
sa(dp290
g4
F4.618025751072961
sg5
F2.485152728741996
sg6
I6
sg7
I233
sg8
S'Answer31.txt'
p291
sa(dp292
g4
F4.639498432601881
sg5
F2.716224514008205
sg6
I11
sg7
I319
sg8
S'Answer32.txt'
p293
sa(dp294
g4
F5.025
sg5
F2.8707214540367136
sg6
I6
sg7
I120
sg8
S'Answer33.txt'
p295
sa(dp296
g4
F4.709090909090909
sg5
F2.5375201012923667
sg6
I14
sg7
I275
sg8
S'Answer35.txt'
p297
sa(dp298
g4
F4.896067415730337
sg5
F3.1512234534989894
sg6
I13
sg7
I356
sg8
S'Answer36.txt'
p299
sa(dp300
g4
F5.277777777777778
sg5
F2.8571979712497315
sg6
I5
sg7
I162
sg8
S'Answer37.txt'
p301
sa(dp302
g4
F5.694444444444445
sg5
F3.2571485619864027
sg6
I8
sg7
I252
sg8
S'Answer38.txt'
p303
sa(dp304
g4
F4.8
sg5
F2.729386788054409
sg6
I10
sg7
I335
sg8
S'Answer39.txt'
p305
sa(dp306
g4
F5.360730593607306
sg5
F2.9812980862400154
sg6
I9
sg7
I219
sg8
S'Answer40.txt'
p307
sa(dp308
g4
F4.8076923076923075
sg5
F2.92231771517102
sg6
I5
sg7
I182
sg8
S'Answer41.txt'
p309
sa(dp310
g4
F5.070796460176991
sg5
F2.947075388915606
sg6
I4
sg7
I113
sg8
S'Answer42.txt'
p311
sa(dp312
g4
F5.413978494623656
sg5
F3.0295353062112556
sg6
I9
sg7
I186
sg8
S'Answer44.txt'
p313
sa(dp314
g4
F5.110047846889952
sg5
F2.808453489466289
sg6
I8
sg7
I209
sg8
S'Answer45.txt'
p315
sa(dp316
g4
F5.37
sg5
F4.736359361366069
sg6
I4
sg7
I100
sg8
S'Answer46.txt'
p317
sa(dp318
g4
F4.728448275862069
sg5
F2.576328115296931
sg6
I11
sg7
I232
sg8
S'Answer47.txt'
p319
sa(dp320
g4
F4.96078431372549
sg5
F2.674943901289905
sg6
I5
sg7
I102
sg8
S'Answer48.txt'
p321
sa(dp322
g4
F4.696385542168675
sg5
F2.6560885175014435
sg6
I23
sg7
I415
sg8
S'Answer49.txt'
p323
sa(dp324
g4
F4.927536231884058
sg5
F2.6420174580587568
sg6
I5
sg7
I138
sg8
S'Answer50.txt'
p325
sasS'Virali-Modi'
p326
(lp327
(dp328
g4
F4.6120906801007555
sg5
F2.603167013580427
sg6
I21
sg7
I397
sg8
S'Answer2.txt'
p329
sa(dp330
g4
F4.863636363636363
sg5
F2.9239676429227974
sg6
I5
sg7
I88
sg8
S'Answer4.txt'
p331
sa(dp332
g4
F4.5
sg5
F2.586266712890239
sg6
I11
sg7
I196
sg8
S'Answer5.txt'
p333
sa(dp334
g4
F4.364779874213837
sg5
F2.807047249285403
sg6
I6
sg7
I159
sg8
S'Answer7.txt'
p335
sa(dp336
g4
F4.756302521008403
sg5
F2.786420813606201
sg6
I7
sg7
I119
sg8
S'Answer8.txt'
p337
sa(dp338
g4
F4.556179775280899
sg5
F2.5659155256038315
sg6
I10
sg7
I178
sg8
S'Answer9.txt'
p339
sa(dp340
g4
F4.193939393939394
sg5
F2.3507496410963866
sg6
I29
sg7
I495
sg8
S'Answer11.txt'
p341
sa(dp342
g4
F4.656
sg5
F2.520647535852644
sg6
I9
sg7
I125
sg8
S'Answer13.txt'
p343
sa(dp344
g4
F4.846938775510204
sg5
F2.752928091666075
sg6
I6
sg7
I98
sg8
S'Answer14.txt'
p345
sa(dp346
g4
F4.47093023255814
sg5
F2.548203483855344
sg6
I8
sg7
I172
sg8
S'Answer15.txt'
p347
sa(dp348
g4
F4.5394736842105265
sg5
F2.344875653047482
sg6
I22
sg7
I456
sg8
S'Answer16.txt'
p349
sa(dp350
g4
F4.192660550458716
sg5
F2.3139401939474262
sg6
I20
sg7
I327
sg8
S'Answer17.txt'
p351
sa(dp352
g4
F4.545454545454546
sg5
F2.597218038555853
sg6
I11
sg7
I209
sg8
S'Answer18.txt'
p353
sa(dp354
g4
F4.945945945945946
sg5
F2.588393490554135
sg6
I12
sg7
I222
sg8
S'Answer19.txt'
p355
sa(dp356
g4
F4.756302521008403
sg5
F2.907441586816482
sg6
I8
sg7
I119
sg8
S'Answer20.txt'
p357
sa(dp358
g4
F4.15680473372781
sg5
F2.2615184124650463
sg6
I17
sg7
I338
sg8
S'Answer21.txt'
p359
sa(dp360
g4
F4.322916666666667
sg5
F2.2430206180629644
sg6
I8
sg7
I192
sg8
S'Answer24.txt'
p361
sa(dp362
g4
F3.8205128205128207
sg5
F2.1507914846677703
sg6
I6
sg7
I117
sg8
S'Answer25.txt'
p363
sa(dp364
g4
F4.37386018237082
sg5
F2.3681108354085323
sg6
I13
sg7
I329
sg8
S'Answer28.txt'
p365
sa(dp366
g4
F4.261780104712042
sg5
F2.6712655537127605
sg6
I7
sg7
I191
sg8
S'Answer29.txt'
p367
sa(dp368
g4
F4.45320197044335
sg5
F2.7483137855131177
sg6
I19
sg7
I406
sg8
S'Answer30.txt'
p369
sa(dp370
g4
F4.071005917159764
sg5
F2.4677181192229636
sg6
I12
sg7
I169
sg8
S'Answer32.txt'
p371
sa(dp372
g4
F4.478390461997019
sg5
F2.5483218702208386
sg6
I43
sg7
I671
sg8
S'Answer33.txt'
p373
sa(dp374
g4
F4.455252918287938
sg5
F2.603301860725275
sg6
I12
sg7
I257
sg8
S'Answer34.txt'
p375
sa(dp376
g4
F4.532976827094474
sg5
F2.416387873290774
sg6
I27
sg7
I561
sg8
S'Answer35.txt'
p377
sa(dp378
g4
F4.386281588447654
sg5
F2.574288216114296
sg6
I13
sg7
I277
sg8
S'Answer36.txt'
p379
sa(dp380
g4
F4.374358974358974
sg5
F2.3023642195236014
sg6
I18
sg7
I390
sg8
S'Answer37.txt'
p381
sa(dp382
g4
F4.772151898734177
sg5
F2.550499415421616
sg6
I11
sg7
I237
sg8
S'Answer38.txt'
p383
sa(dp384
g4
F4.76
sg5
F2.863983240174425
sg6
I5
sg7
I100
sg8
S'Answer39.txt'
p385
sa(dp386
g4
F4.45945945945946
sg5
F2.9371303755453315
sg6
I7
sg7
I111
sg8
S'Answer40.txt'
p387
sa(dp388
g4
F4.302884615384615
sg5
F2.4513715443043007
sg6
I9
sg7
I208
sg8
S'Answer42.txt'
p389
sa(dp390
g4
F4.511627906976744
sg5
F2.2183239477800143
sg6
I17
sg7
I301
sg8
S'Answer46.txt'
p391
sa(dp392
g4
F4.602941176470588
sg5
F2.6534644716713536
sg6
I13
sg7
I272
sg8
S'Answer48.txt'
p393
sasS'Nate-Waddoups'
p394
(lp395
(dp396
g4
F4.526315789473684
sg5
F2.4822546567543724
sg6
I4
sg7
I114
sg8
S'Answer1.txt'
p397
sa(dp398
g4
F5.189873417721519
sg5
F2.7052501668033595
sg6
I10
sg7
I237
sg8
S'Answer2.txt'
p399
sa(dp400
g4
F4.355029585798817
sg5
F2.339142391839838
sg6
I6
sg7
I169
sg8
S'Answer4.txt'
p401
sa(dp402
g4
F4.26056338028169
sg5
F2.019899514530325
sg6
I8
sg7
I142
sg8
S'Answer6.txt'
p403
sa(dp404
g4
F4.380530973451328
sg5
F2.014630487521978
sg6
I6
sg7
I113
sg8
S'Answer7.txt'
p405
sa(dp406
g4
F4.7712765957446805
sg5
F2.6788820445479056
sg6
I6
sg7
I188
sg8
S'Answer8.txt'
p407
sa(dp408
g4
F4.542105263157895
sg5
F2.5987478339979706
sg6
I6
sg7
I190
sg8
S'Answer11.txt'
p409
sa(dp410
g4
F5.2959641255605385
sg5
F4.489382775254176
sg6
I5
sg7
I223
sg8
S'Answer12.txt'
p411
sa(dp412
g4
F4.65
sg5
F2.30313331722744
sg6
I13
sg7
I260
sg8
S'Answer13.txt'
p413
sa(dp414
g4
F5.1808219178082195
sg5
F2.884092294907882
sg6
I10
sg7
I365
sg8
S'Answer16.txt'
p415
sa(dp416
g4
F5.321192052980132
sg5
F3.0837344967683853
sg6
I7
sg7
I302
sg8
S'Answer18.txt'
p417
sa(dp418
g4
F5.059210526315789
sg5
F3.0516034452821064
sg6
I11
sg7
I304
sg8
S'Answer19.txt'
p419
sa(dp420
g4
F4.768421052631579
sg5
F2.8584843177188346
sg6
I5
sg7
I285
sg8
S'Answer21.txt'
p421
sa(dp422
g4
F5.304273504273504
sg5
F3.3644291412605107
sg6
I19
sg7
I585
sg8
S'Answer23.txt'
p423
sa(dp424
g4
F5.184
sg5
F2.997022522437895
sg6
I7
sg7
I125
sg8
S'Answer25.txt'
p425
sa(dp426
g4
F4.943089430894309
sg5
F2.820657863091516
sg6
I8
sg7
I123
sg8
S'Answer27.txt'
p427
sa(dp428
g4
F5.3652173913043475
sg5
F3.0254871969367163
sg6
I12
sg7
I230
sg8
S'Answer28.txt'
p429
sa(dp430
g4
F5.125
sg5
F2.8492096605295956
sg6
I7
sg7
I232
sg8
S'Answer29.txt'
p431
sa(dp432
g4
F5.233160621761658
sg5
F3.1757727402187808
sg6
I8
sg7
I193
sg8
S'Answer30.txt'
p433
sa(dp434
g4
F5.093023255813954
sg5
F3.068827669163757
sg6
I5
sg7
I129
sg8
S'Answer32.txt'
p435
sa(dp436
g4
F4.2615384615384615
sg5
F2.5132077148042247
sg6
I8
sg7
I130
sg8
S'Answer34.txt'
p437
sa(dp438
g4
F4.454212454212454
sg5
F2.7293531655166876
sg6
I14
sg7
I273
sg8
S'Answer36.txt'
p439
sa(dp440
g4
F4.977777777777778
sg5
F2.9671451965288025
sg6
I7
sg7
I225
sg8
S'Answer37.txt'
p441
sa(dp442
g4
F4.859237536656892
sg5
F3.0820849294740933
sg6
I18
sg7
I682
sg8
S'Answer38.txt'
p443
sa(dp444
g4
F4.947368421052632
sg5
F2.3322382339836984
sg6
I5
sg7
I95
sg8
S'Answer39.txt'
p445
sa(dp446
g4
F4.98326359832636
sg5
F2.862199942719916
sg6
I11
sg7
I239
sg8
S'Answer40.txt'
p447
sa(dp448
g4
F4.409638554216867
sg5
F2.326050194624176
sg6
I5
sg7
I166
sg8
S'Answer42.txt'
p449
sa(dp450
g4
F4.111111111111111
sg5
F2.057206544183665
sg6
I5
sg7
I135
sg8
S'Answer43.txt'
p451
sa(dp452
g4
F4.8396946564885495
sg5
F2.8116898667465717
sg6
I8
sg7
I262
sg8
S'Answer44.txt'
p453
sa(dp454
g4
F4.85064935064935
sg5
F2.8734848464467886
sg6
I7
sg7
I154
sg8
S'Answer45.txt'
p455
sa(dp456
g4
F4.458333333333333
sg5
F2.5491692546570732
sg6
I5
sg7
I144
sg8
S'Answer47.txt'
p457
sa(dp458
g4
F4.264069264069264
sg5
F2.1329123382880826
sg6
I16
sg7
I231
sg8
S'Answer48.txt'
p459
sa(dp460
g4
F4.641304347826087
sg5
F2.6109365375329547
sg6
I2
sg7
I92
sg8
S'Answer50.txt'
p461
sasS'Ellen-Vrana'
p462
(lp463
(dp464
g4
F5.27319587628866
sg5
F2.930923483611798
sg6
I10
sg7
I194
sg8
S'Answer1.txt'
p465
sa(dp466
g4
F4.77027027027027
sg5
F2.765361504627977
sg6
I16
sg7
I370
sg8
S'Answer2.txt'
p467
sa(dp468
g4
F5.007898894154819
sg5
F3.1429754433477397
sg6
I26
sg7
I633
sg8
S'Answer3.txt'
p469
sag468
a(dp470
g4
F4.293233082706767
sg5
F2.348514023506095
sg6
I8
sg7
I266
sg8
S'Answer4.txt'
p471
sa(dp472
g4
F4.5625
sg5
F3.0245014302385695
sg6
I29
sg7
I528
sg8
S'Answer5.txt'
p473
sag472
a(dp474
g4
F4.22463768115942
sg5
F2.4584020848417043
sg6
I8
sg7
I138
sg8
S'Answer6.txt'
p475
sa(dp476
g4
F4.988416988416988
sg5
F3.049758045321134
sg6
I31
sg7
I518
sg8
S'Answer7.txt'
p477
sa(dp478
g4
F4.776758409785932
sg5
F2.8233968761453694
sg6
I17
sg7
I327
sg8
S'Answer8.txt'
p479
sa(dp480
g4
F5.0828402366863905
sg5
F2.8209279566493466
sg6
I9
sg7
I169
sg8
S'Answer9.txt'
p481
sa(dp482
g4
F4.313868613138686
sg5
F2.2799832185028825
sg6
I20
sg7
I411
sg8
S'Answer10.txt'
p483
sa(dp484
g4
F4.434451219512195
sg5
F2.6391694815790965
sg6
I46
sg7
I656
sg8
S'Answer11.txt'
p485
sa(dp486
g4
F4.739967897271268
sg5
F2.729623119511434
sg6
I39
sg7
I623
sg8
S'Answer12.txt'
p487
sa(dp488
g4
F4.783783783783784
sg5
F3.3299227743267976
sg6
I6
sg7
I185
sg8
S'Answer13.txt'
p489
sa(dp490
g4
F4.649704142011834
sg5
F2.511114330081411
sg6
I77
sg7
I845
sg8
S'Answer14.txt'
p491
sa(dp492
g4
F4.795620437956204
sg5
F2.3865152989224794
sg6
I37
sg7
I411
sg8
S'Answer15.txt'
p493
sa(dp494
g4
F4.836705202312139
sg5
F2.8696507631922206
sg6
I30
sg7
I692
sg8
S'Answer16.txt'
p495
sa(dp496
g4
F4.851351351351352
sg5
F2.9622965544577404
sg6
I13
sg7
I592
sg8
S'Answer17.txt'
p497
sa(dp498
g4
F4.939643347050755
sg5
F3.317109552759322
sg6
I31
sg7
I729
sg8
S'Answer18.txt'
p499
sag498
a(dp500
g4
F4.470790378006873
sg5
F2.3569023574135715
sg6
I12
sg7
I291
sg8
S'Answer19.txt'
p501
sa(dp502
g4
F4.391304347826087
sg5
F2.3256727665497983
sg6
I9
sg7
I299
sg8
S'Answer20.txt'
p503
sa(dp504
g4
F4.922800718132854
sg5
F2.8523449142167845
sg6
I19
sg7
I557
sg8
S'Answer21.txt'
p505
sa(dp506
g4
F4.5233644859813085
sg5
F2.9587373992957016
sg6
I12
sg7
I107
sg8
S'Answer22.txt'
p507
sa(dp508
g4
F4.329670329670329
sg5
F2.520487241640695
sg6
I12
sg7
I182
sg8
S'Answer23.txt'
p509
sa(dp510
g4
F4.045977011494253
sg5
F2.1490871945052556
sg6
I11
sg7
I174
sg8
S'Answer24.txt'
p511
sa(dp512
g4
F4.45859872611465
sg5
F2.7519314487922633
sg6
I6
sg7
I157
sg8
S'Answer25.txt'
p513
sa(dp514
g4
F5.620689655172414
sg5
F3.4201612495102625
sg6
I16
sg7
I145
sg8
S'Answer26.txt'
p515
sa(dp516
g4
F4.219251336898396
sg5
F2.255131634925212
sg6
I15
sg7
I374
sg8
S'Answer27.txt'
p517
sa(dp518
g4
F4.814528593508501
sg5
F2.8053116518526338
sg6
I32
sg7
I647
sg8
S'Answer28.txt'
p519
sa(dp520
g4
F4.811881188118812
sg5
F3.065983508920567
sg6
I29
sg7
I404
sg8
S'Answer29.txt'
p521
sa(dp522
g4
F4.48
sg5
F2.391986622036169
sg6
I10
sg7
I125
sg8
S'Answer30.txt'
p523
sa(dp524
g4
F4.391891891891892
sg5
F2.453996010743511
sg6
I9
sg7
I148
sg8
S'Answer31.txt'
p525
sa(dp526
g4
F4.80188679245283
sg5
F2.940991397858619
sg6
I10
sg7
I106
sg8
S'Answer32.txt'
p527
sa(dp528
g4
F4.85239852398524
sg5
F2.7410343220820392
sg6
I18
sg7
I271
sg8
S'Answer33.txt'
p529
sa(dp530
g4
F4.686486486486486
sg5
F2.8856428230239457
sg6
I53
sg7
I555
sg8
S'Answer34.txt'
p531
sa(dp532
g4
F4.236486486486487
sg5
F2.483354005107257
sg6
I12
sg7
I296
sg8
S'Answer35.txt'
p533
sa(dp534
g4
F4.734557595993322
sg5
F2.9988296709322553
sg6
I53
sg7
I599
sg8
S'Answer36.txt'
p535
sa(dp536
g4
F4.788732394366197
sg5
F2.7279885807372968
sg6
I63
sg7
I781
sg8
S'Answer37.txt'
p537
sa(dp538
g4
F4.5754716981132075
sg5
F2.8148799807101508
sg6
I6
sg7
I106
sg8
S'Answer39.txt'
p539
sa(dp540
g4
F4.390052356020942
sg5
F2.4828638879858254
sg6
I28
sg7
I382
sg8
S'Answer40.txt'
p541
sa(dp542
g4
F4.344481605351171
sg5
F2.4216956901204414
sg6
I16
sg7
I299
sg8
S'Answer41.txt'
p543
sa(dp544
g4
F4.536127167630058
sg5
F2.542158071428482
sg6
I39
sg7
I692
sg8
S'Answer42.txt'
p545
sa(dp546
g4
F4.209219858156028
sg5
F2.0719812942150995
sg6
I17
sg7
I282
sg8
S'Answer43.txt'
p547
sa(dp548
g4
F4.732984293193717
sg5
F3.0298533814101183
sg6
I19
sg7
I382
sg8
S'Answer44.txt'
p549
sa(dp550
g4
F4.237609329446064
sg5
F2.0639448483843883
sg6
I61
sg7
I686
sg8
S'Answer45.txt'
p551
sa(dp552
g4
F4.5497237569060776
sg5
F2.3443861312781933
sg6
I23
sg7
I362
sg8
S'Answer46.txt'
p553
sa(dp554
g4
F4.93640897755611
sg5
F4.208671261556262
sg6
I24
sg7
I802
sg8
S'Answer47.txt'
p555
sa(dp556
g4
F4.799086757990867
sg5
F2.763228719440963
sg6
I18
sg7
I438
sg8
S'Answer48.txt'
p557
sa(dp558
g4
F4.35933147632312
sg5
F2.4736191609932967
sg6
I36
sg7
I359
sg8
S'Answer49.txt'
p559
sa(dp560
g4
F4.689655172413793
sg5
F2.722871814018554
sg6
I10
sg7
I145
sg8
S'Answer50.txt'
p561
sasS'Gauri-Noolkar'
p562
(lp563
(dp564
g4
F5.162679425837321
sg5
F3.9762867072900967
sg6
I6
sg7
I209
sg8
S'Answer1.txt'
p565
sa(dp566
g4
F5.261477045908183
sg5
F3.095533614299406
sg6
I16
sg7
I501
sg8
S'Answer2.txt'
p567
sa(dp568
g4
F5.091772151898734
sg5
F2.9091402268501336
sg6
I10
sg7
I316
sg8
S'Answer3.txt'
p569
sa(dp570
g4
F5.105769230769231
sg5
F2.9190519268888955
sg6
I25
sg7
I624
sg8
S'Answer4.txt'
p571
sa(dp572
g4
F4.833652007648183
sg5
F2.9412760217415035
sg6
I13
sg7
I523
sg8
S'Answer5.txt'
p573
sa(dp574
g4
F4.573264781491003
sg5
F2.9078220693433394
sg6
I24
sg7
I389
sg8
S'Answer6.txt'
p575
sa(dp576
g4
F4.976076555023924
sg5
F3.131015078209724
sg6
I5
sg7
I209
sg8
S'Answer7.txt'
p577
sa(dp578
g4
F4.505660377358491
sg5
F2.452754715819996
sg6
I12
sg7
I265
sg8
S'Answer8.txt'
p579
sa(dp580
g4
F4.574626865671642
sg5
F2.7026158297947833
sg6
I3
sg7
I134
sg8
S'Answer9.txt'
p581
sa(dp582
g4
F4.491228070175438
sg5
F2.550927869377654
sg6
I6
sg7
I171
sg8
S'Answer10.txt'
p583
sa(dp584
g4
F4.7396630934150075
sg5
F2.794586411191822
sg6
I23
sg7
I653
sg8
S'Answer11.txt'
p585
sa(dp586
g4
F4.699186991869919
sg5
F2.907615342732632
sg6
I6
sg7
I123
sg8
S'Answer12.txt'
p587
sa(dp588
g4
F4.778097982708934
sg5
F2.815106196096073
sg6
I12
sg7
I347
sg8
S'Answer13.txt'
p589
sa(dp590
g4
F4.711382113821138
sg5
F2.7337904610418335
sg6
I9
sg7
I246
sg8
S'Answer14.txt'
p591
sa(dp592
g4
F4.808219178082192
sg5
F3.034313057807793
sg6
I7
sg7
I365
sg8
S'Answer15.txt'
p593
sa(dp594
g4
F5.111607142857143
sg5
F3.1111907899351885
sg6
I7
sg7
I224
sg8
S'Answer16.txt'
p595
sa(dp596
g4
F5.1256830601092895
sg5
F2.6715555829670534
sg6
I8
sg7
I183
sg8
S'Answer17.txt'
p597
sa(dp598
g4
F5.011111111111111
sg5
F2.794814422161334
sg6
I6
sg7
I90
sg8
S'Answer18.txt'
p599
sa(dp600
g4
F4.756756756756757
sg5
F2.901432439691468
sg6
I7
sg7
I222
sg8
S'Answer20.txt'
p601
sa(dp602
g4
F4.2176470588235295
sg5
F2.2969891531198354
sg6
I4
sg7
I170
sg8
S'Answer21.txt'
p603
sa(dp604
g4
F5.077272727272727
sg5
F2.7811756536631993
sg6
I9
sg7
I220
sg8
S'Answer22.txt'
p605
sa(dp606
g4
F5.058315334773218
sg5
F3.0797273048200635
sg6
I17
sg7
I463
sg8
S'Answer23.txt'
p607
sa(dp608
g4
F4.562582345191041
sg5
F2.6605935469130486
sg6
I48
sg7
I759
sg8
S'Answer24.txt'
p609
sa(dp610
g4
F4.868852459016393
sg5
F2.6331767875752483
sg6
I3
sg7
I122
sg8
S'Answer27.txt'
p611
sa(dp612
g4
F4.9491525423728815
sg5
F2.885814098418176
sg6
I10
sg7
I236
sg8
S'Answer28.txt'
p613
sa(dp614
g4
F4.171102661596958
sg5
F2.7502508563275754
sg6
I10
sg7
I263
sg8
S'Answer30.txt'
p615
sa(dp616
g4
F5.033112582781457
sg5
F3.2088809267242433
sg6
I7
sg7
I151
sg8
S'Answer31.txt'
p617
sa(dp618
g4
F4.775862068965517
sg5
F2.666316737841225
sg6
I17
sg7
I464
sg8
S'Answer32.txt'
p619
sa(dp620
g4
F4.287356321839081
sg5
F2.3484308577695887
sg6
I10
sg7
I174
sg8
S'Answer33.txt'
p621
sa(dp622
g4
F5.078431372549019
sg5
F2.650759939783716
sg6
I4
sg7
I153
sg8
S'Answer34.txt'
p623
sa(dp624
g4
F4.866197183098592
sg5
F2.9172359898153144
sg6
I4
sg7
I142
sg8
S'Answer35.txt'
p625
sa(dp626
g4
F4.596244131455399
sg5
F2.80783360536612
sg6
I12
sg7
I213
sg8
S'Answer38.txt'
p627
sa(dp628
g4
F4.268518518518518
sg5
F2.4630847923085204
sg6
I3
sg7
I108
sg8
S'Answer40.txt'
p629
sa(dp630
g4
F4.873493975903615
sg5
F2.772871346271903
sg6
I15
sg7
I332
sg8
S'Answer41.txt'
p631
sa(dp632
g4
F4.796610169491525
sg5
F2.7817788542216815
sg6
I4
sg7
I118
sg8
S'Answer42.txt'
p633
sa(dp634
g4
F4.564356435643564
sg5
F2.4576243926059655
sg6
I22
sg7
I505
sg8
S'Answer43.txt'
p635
sag634
a(dp636
g4
F4.889908256880734
sg5
F2.617301115500065
sg6
I4
sg7
I109
sg8
S'Answer44.txt'
p637
sa(dp638
g4
F4.7972602739726025
sg5
F2.6878709098741873
sg6
I13
sg7
I365
sg8
S'Answer46.txt'
p639
sa(dp640
g4
F4.725581395348837
sg5
F2.713282832980538
sg6
I9
sg7
I215
sg8
S'Answer47.txt'
p641
sa(dp642
g4
F4.935779816513762
sg5
F3.0307553867833326
sg6
I12
sg7
I327
sg8
S'Answer49.txt'
p643
sa(dp644
g4
F4.571428571428571
sg5
F2.582916435992554
sg6
I27
sg7
I497
sg8
S'Answer50.txt'
p645
sag644
asS'Kartik-Ayyar'
p646
(lp647
(dp648
g4
F5.456140350877193
sg5
F3.6131833436788767
sg6
I2
sg7
I114
sg8
S'Answer4.txt'
p649
sa(dp650
g4
F4.776081424936387
sg5
F3.4250592630204206
sg6
I23
sg7
I786
sg8
S'Answer5.txt'
p651
sa(dp652
g4
F4.410138248847926
sg5
F2.4705618830042724
sg6
I5
sg7
I217
sg8
S'Answer6.txt'
p653
sa(dp654
g4
F4.625
sg5
F2.4462982238476156
sg6
I1
sg7
I96
sg8
S'Answer7.txt'
p655
sa(dp656
g4
F4.576923076923077
sg5
F2.8912743653311943
sg6
I3
sg7
I104
sg8
S'Answer14.txt'
p657
sa(dp658
g4
F4.364779874213837
sg5
F2.5346770277459063
sg6
I15
sg7
I477
sg8
S'Answer20.txt'
p659
sa(dp660
g4
F4.56359102244389
sg5
F2.6652976463165525
sg6
I8
sg7
I401
sg8
S'Answer21.txt'
p661
sa(dp662
g4
F4.869747899159663
sg5
F3.31216384682429
sg6
I7
sg7
I238
sg8
S'Answer26.txt'
p663
sa(dp664
g4
F4.9
sg5
F2.8717839154683715
sg6
I2
sg7
I140
sg8
S'Answer29.txt'
p665
sa(dp666
g4
F4.455357142857143
sg5
F2.5244815339602145
sg6
I3
sg7
I112
sg8
S'Answer30.txt'
p667
sa(dp668
g4
F4.538775510204082
sg5
F2.6824308444615363
sg6
I7
sg7
I245
sg8
S'Answer31.txt'
p669
sa(dp670
g4
F4.262295081967213
sg5
F2.4015134527514745
sg6
I3
sg7
I183
sg8
S'Answer33.txt'
p671
sa(dp672
g4
F4.773913043478261
sg5
F4.201575003992871
sg6
I4
sg7
I115
sg8
S'Answer34.txt'
p673
sa(dp674
g4
F4.966386554621849
sg5
F3.071782044059402
sg6
I3
sg7
I238
sg8
S'Answer35.txt'
p675
sa(dp676
g4
F4.566037735849057
sg5
F2.3699595354844916
sg6
I5
sg7
I159
sg8
S'Answer36.txt'
p677
sa(dp678
g4
F4.996763754045308
sg5
F2.9012868274039105
sg6
I4
sg7
I309
sg8
S'Answer39.txt'
p679
sa(dp680
g4
F5.348837209302325
sg5
F2.892522202927649
sg6
I3
sg7
I86
sg8
S'Answer43.txt'
p681
sa(dp682
g4
F4.94392523364486
sg5
F3.3400200785700545
sg6
I6
sg7
I107
sg8
S'Answer44.txt'
p683
sa(dp684
g4
F4.992307692307692
sg5
F2.9181030557173577
sg6
I1
sg7
I130
sg8
S'Answer49.txt'
p685
sasS'Siddharth-Bhattacharya'
p686
(lp687
(dp688
g4
F5.095118898623279
sg5
F2.965966942585744
sg6
I31
sg7
I799
sg8
S'Answer1.txt'
p689
sa(dp690
g4
F4.446952595936795
sg5
F2.5379749601660837
sg6
I41
sg7
I886
sg8
S'Answer2.txt'
p691
sa(dp692
g4
F5.082304526748971
sg5
F3.1350625051789134
sg6
I6
sg7
I243
sg8
S'Answer3.txt'
p693
sa(dp694
g4
F5.281746031746032
sg5
F2.9315353651074596
sg6
I33
sg7
I756
sg8
S'Answer4.txt'
p695
sag694
a(dp696
g4
F4.726643598615917
sg5
F3.023783946879655
sg6
I34
sg7
I578
sg8
S'Answer5.txt'
p697
sa(dp698
g4
F4.905848787446505
sg5
F2.97296089146093
sg6
I35
sg7
I701
sg8
S'Answer6.txt'
p699
sag698
a(dp700
g4
F5.059050064184852
sg5
F3.6322057676000132
sg6
I52
sg7
I779
sg8
S'Answer7.txt'
p701
sag700
a(dp702
g4
F4.687179487179487
sg5
F4.35551597346799
sg6
I26
sg7
I585
sg8
S'Answer8.txt'
p703
sa(dp704
g4
F4.744604316546763
sg5
F2.6868095776857697
sg6
I31
sg7
I556
sg8
S'Answer9.txt'
p705
sa(dp706
g4
F4.895555555555555
sg5
F2.855828780702959
sg6
I13
sg7
I450
sg8
S'Answer10.txt'
p707
sag706
a(dp708
g4
F5.055299539170507
sg5
F2.7702637628583746
sg6
I34
sg7
I651
sg8
S'Answer11.txt'
p709
sa(dp710
g4
F4.590711175616836
sg5
F2.538121698890773
sg6
I34
sg7
I689
sg8
S'Answer12.txt'
p711
sa(dp712
g4
F5.34341252699784
sg5
F2.9562677889847304
sg6
I18
sg7
I463
sg8
S'Answer13.txt'
p713
sa(dp714
g4
F5.321678321678322
sg5
F3.000236351065918
sg6
I17
sg7
I572
sg8
S'Answer14.txt'
p715
sa(dp716
g4
F5.311958405545927
sg5
F3.056897614859325
sg6
I25
sg7
I577
sg8
S'Answer15.txt'
p717
sa(dp718
g4
F5.034408602150537
sg5
F2.9305397727937423
sg6
I20
sg7
I465
sg8
S'Answer16.txt'
p719
sag718
a(dp720
g4
F4.530405405405405
sg5
F2.316747451615162
sg6
I37
sg7
I592
sg8
S'Answer17.txt'
p721
sa(dp722
g4
F5.434083601286174
sg5
F3.0559618153381853
sg6
I28
sg7
I622
sg8
S'Answer18.txt'
p723
sa(dp724
g4
F4.882113821138211
sg5
F2.702188188490009
sg6
I39
sg7
I738
sg8
S'Answer19.txt'
p725
sa(dp726
g4
F4.997757847533633
sg5
F2.9868912997344617
sg6
I28
sg7
I446
sg8
S'Answer20.txt'
p727
sag726
a(dp728
g4
F4.9624217118997915
sg5
F2.7564021475819804
sg6
I23
sg7
I479
sg8
S'Answer21.txt'
p729
sa(dp730
g4
F4.738264580369844
sg5
F2.875768357413753
sg6
I35
sg7
I703
sg8
S'Answer22.txt'
p731
sa(dp732
g4
F5.256821829855538
sg5
F2.9361609190528335
sg6
I25
sg7
I623
sg8
S'Answer23.txt'
p733
sa(dp734
g4
F4.771378708551484
sg5
F2.5823439339877976
sg6
I29
sg7
I573
sg8
S'Answer24.txt'
p735
sa(dp736
g4
F5.1189024390243905
sg5
F2.985413116854474
sg6
I31
sg7
I656
sg8
S'Answer25.txt'
p737
sa(dp738
g4
F5.18018018018018
sg5
F3.0941416756263505
sg6
I38
sg7
I777
sg8
S'Answer26.txt'
p739
sa(dp740
g4
F5.0
sg5
F2.90373116459823
sg6
I28
sg7
I556
sg8
S'Answer27.txt'
p741
sag740
a(dp742
g4
F4.9789644012944985
sg5
F3.6106473563706123
sg6
I41
sg7
I618
sg8
S'Answer28.txt'
p743
sa(dp744
g4
F5.38568129330254
sg5
F2.866784868580417
sg6
I19
sg7
I433
sg8
S'Answer29.txt'
p745
sa(dp746
g4
F5.720588235294118
sg5
F3.2128903435787586
sg6
I27
sg7
I544
sg8
S'Answer30.txt'
p747
sa(dp748
g4
F4.947368421052632
sg5
F3.444655421015154
sg6
I8
sg7
I152
sg8
S'Answer31.txt'
p749
sa(dp750
g4
F4.97410071942446
sg5
F2.845552838006068
sg6
I32
sg7
I695
sg8
S'Answer32.txt'
p751
sa(dp752
g4
F4.580985915492958
sg5
F2.7251678614428627
sg6
I15
sg7
I284
sg8
S'Answer33.txt'
p753
sa(dp754
g4
F5.237864077669903
sg5
F2.7662535213953063
sg6
I22
sg7
I412
sg8
S'Answer34.txt'
p755
sa(dp756
g4
F4.900990099009901
sg5
F2.923123754658786
sg6
I13
sg7
I303
sg8
S'Answer35.txt'
p757
sa(dp758
g4
F5.346733668341709
sg5
F8.268446828103079
sg6
I24
sg7
I398
sg8
S'Answer36.txt'
p759
sag758
a(dp760
g4
F4.954545454545454
sg5
F2.812564896475267
sg6
I18
sg7
I286
sg8
S'Answer37.txt'
p761
sa(dp762
g4
F5.126126126126126
sg5
F2.9589294299593467
sg6
I29
sg7
I555
sg8
S'Answer38.txt'
p763
sa(dp764
g4
F5.100985221674877
sg5
F2.7600508695923116
sg6
I25
sg7
I406
sg8
S'Answer39.txt'
p765
sa(dp766
g4
F4.696969696969697
sg5
F2.630645139042241
sg6
I18
sg7
I330
sg8
S'Answer40.txt'
p767
sa(dp768
g4
F5.15546218487395
sg5
F2.9257247174878955
sg6
I13
sg7
I238
sg8
S'Answer41.txt'
p769
sa(dp770
g4
F5.118181818181818
sg5
F3.4647099266797294
sg6
I24
sg7
I440
sg8
S'Answer43.txt'
p771
sa(dp772
g4
F5.365111561866126
sg5
F3.01661387444148
sg6
I24
sg7
I493
sg8
S'Answer44.txt'
p773
sa(dp774
g4
F5.161434977578475
sg5
F2.966319412274671
sg6
I25
sg7
I446
sg8
S'Answer45.txt'
p775
sa(dp776
g4
F4.818666666666667
sg5
F2.9128081906564924
sg6
I39
sg7
I750
sg8
S'Answer46.txt'
p777
sa(dp778
g4
F5.964485981308411
sg5
F5.764915677888792
sg6
I30
sg7
I535
sg8
S'Answer47.txt'
p779
sa(dp780
g4
F5.315693430656935
sg5
F5.508186514610589
sg6
I29
sg7
I548
sg8
S'Answer48.txt'
p781
sag780
a(dp782
g4
F4.696048632218845
sg5
F2.8719399537488317
sg6
I12
sg7
I329
sg8
S'Answer49.txt'
p783
sa(dp784
g4
F5.1068181818181815
sg5
F2.718614096061776
sg6
I25
sg7
I440
sg8
S'Answer50.txt'
p785
sasS'Tracey-Bryan'
p786
(lp787
(dp788
g4
F5.709677419354839
sg5
F3.4152744978905774
sg6
I3
sg7
I155
sg8
S'Answer1.txt'
p789
sa(dp790
g4
F5.153988868274583
sg5
F3.185722708023693
sg6
I19
sg7
I539
sg8
S'Answer2.txt'
p791
sa(dp792
g4
F4.784
sg5
F2.743965014354228
sg6
I3
sg7
I125
sg8
S'Answer3.txt'
p793
sa(dp794
g4
F4.976190476190476
sg5
F3.1996137805477707
sg6
I2
sg7
I84
sg8
S'Answer4.txt'
p795
sa(dp796
g4
F4.80241935483871
sg5
F2.9053055946552444
sg6
I5
sg7
I248
sg8
S'Answer5.txt'
p797
sa(dp798
g4
F5.322314049586777
sg5
F3.384981111396837
sg6
I5
sg7
I121
sg8
S'Answer7.txt'
p799
sa(dp800
g4
F4.758064516129032
sg5
F2.8803308718481535
sg6
I2
sg7
I124
sg8
S'Answer8.txt'
p801
sa(dp802
g4
F5.219594594594595
sg5
F2.966437457118862
sg6
I11
sg7
I296
sg8
S'Answer9.txt'
p803
sa(dp804
g4
F7.6375404530744335
sg5
F5.99498294308213
sg6
I2
sg7
I309
sg8
S'Answer10.txt'
p805
sa(dp806
g4
F4.747572815533981
sg5
F2.4043586901120455
sg6
I4
sg7
I103
sg8
S'Answer11.txt'
p807
sa(dp808
g4
F4.345454545454546
sg5
F2.490356054510463
sg6
I8
sg7
I165
sg8
S'Answer13.txt'
p809
sa(dp810
g4
F4.434343434343434
sg5
F2.535252925686975
sg6
I1
sg7
I99
sg8
S'Answer15.txt'
p811
sa(dp812
g4
F5.18796992481203
sg5
F3.1697593085727256
sg6
I4
sg7
I133
sg8
S'Answer17.txt'
p813
sa(dp814
g4
F4.329749103942652
sg5
F2.650260744889873
sg6
I4
sg7
I279
sg8
S'Answer18.txt'
p815
sa(dp816
g4
F4.62085308056872
sg5
F2.7995160773809125
sg6
I1
sg7
I211
sg8
S'Answer19.txt'
p817
sa(dp818
g4
F5.288824383164005
sg5
F3.3363729616981708
sg6
I6
sg7
I689
sg8
S'Answer21.txt'
p819
sag818
a(dp820
g4
F5.114832535885167
sg5
F2.8731091299207976
sg6
I7
sg7
I209
sg8
S'Answer23.txt'
p821
sa(dp822
g4
F4.683366733466934
sg5
F2.637775503523665
sg6
I19
sg7
I499
sg8
S'Answer24.txt'
p823
sa(dp824
g4
F4.826086956521739
sg5
F2.8990579266382035
sg6
I13
sg7
I483
sg8
S'Answer25.txt'
p825
sa(dp826
g4
F4.392045454545454
sg5
F2.671342937333763
sg6
I5
sg7
I176
sg8
S'Answer29.txt'
p827
sa(dp828
g4
F4.709163346613546
sg5
F3.0229987778310616
sg6
I5
sg7
I251
sg8
S'Answer30.txt'
p829
sa(dp830
g4
F5.281609195402299
sg5
F3.2066751046188178
sg6
I2
sg7
I174
sg8
S'Answer31.txt'
p831
sa(dp832
g4
F5.068965517241379
sg5
F3.3310198937478632
sg6
I18
sg7
I667
sg8
S'Answer34.txt'
p833
sa(dp834
g4
F5.128
sg5
F3.329807201625945
sg6
I3
sg7
I125
sg8
S'Answer37.txt'
p835
sa(dp836
g4
F4.881057268722467
sg5
F2.915693936077465
sg6
I6
sg7
I227
sg8
S'Answer38.txt'
p837
sa(dp838
g4
F5.091059602649007
sg5
F3.1742944467799616
sg6
I16
sg7
I604
sg8
S'Answer39.txt'
p839
sa(dp840
g4
F4.422018348623853
sg5
F2.7604466397739835
sg6
I3
sg7
I109
sg8
S'Answer40.txt'
p841
sa(dp842
g4
F4.916083916083916
sg5
F2.893195546188086
sg6
I10
sg7
I286
sg8
S'Answer41.txt'
p843
sa(dp844
g4
F5.369230769230769
sg5
F3.2702351398366583
sg6
I10
sg7
I325
sg8
S'Answer43.txt'
p845
sa(dp846
g4
F5.283400809716599
sg5
F3.1508381657971354
sg6
I7
sg7
I247
sg8
S'Answer44.txt'
p847
sa(dp848
g4
F5.145833333333333
sg5
F3.168790406273172
sg6
I2
sg7
I96
sg8
S'Answer45.txt'
p849
sa(dp850
g4
F4.647826086956521
sg5
F2.7126706823025564
sg6
I6
sg7
I230
sg8
S'Answer46.txt'
p851
sa(dp852
g4
F5.1173814898419865
sg5
F3.652481812646239
sg6
I16
sg7
I443
sg8
S'Answer48.txt'
p853
sa(dp854
g4
F4.957446808510638
sg5
F2.8054464264045365
sg6
I2
sg7
I94
sg8
S'Answer49.txt'
p855
sasS'Alvika-Jaju'
p856
(lp857
(dp858
g4
F4.591489361702128
sg5
F2.533841569820547
sg6
I11
sg7
I235
sg8
S'Answer1.txt'
p859
sa(dp860
g4
F4.707182320441989
sg5
F2.927749369408891
sg6
I32
sg7
I362
sg8
S'Answer2.txt'
p861
sa(dp862
g4
F4.424083769633508
sg5
F2.4351797880880337
sg6
I21
sg7
I191
sg8
S'Answer6.txt'
p863
sa(dp864
g4
F4.4447300771208225
sg5
F2.422082267531224
sg6
I37
sg7
I389
sg8
S'Answer7.txt'
p865
sa(dp866
g4
F4.762589928057554
sg5
F3.004990414792047
sg6
I10
sg7
I139
sg8
S'Answer8.txt'
p867
sa(dp868
g4
F4.900523560209424
sg5
F2.6734196267615373
sg6
I11
sg7
I191
sg8
S'Answer9.txt'
p869
sa(dp870
g4
F4.6
sg5
F2.600334426652614
sg6
I5
sg7
I115
sg8
S'Answer11.txt'
p871
sa(dp872
g4
F4.6923076923076925
sg5
F2.9409038045092055
sg6
I18
sg7
I156
sg8
S'Answer12.txt'
p873
sa(dp874
g4
F4.582554517133956
sg5
F2.7762131053882464
sg6
I29
sg7
I321
sg8
S'Answer13.txt'
p875
sa(dp876
g4
F4.481327800829876
sg5
F2.4665109456971206
sg6
I26
sg7
I241
sg8
S'Answer14.txt'
p877
sa(dp878
g4
F4.4603174603174605
sg5
F2.5081374241401497
sg6
I12
sg7
I189
sg8
S'Answer15.txt'
p879
sa(dp880
g4
F4.33939393939394
sg5
F2.5595855954762143
sg6
I5
sg7
I165
sg8
S'Answer18.txt'
p881
sa(dp882
g4
F4.289795918367347
sg5
F2.1423089677851612
sg6
I11
sg7
I245
sg8
S'Answer19.txt'
p883
sa(dp884
g4
F4.926282051282051
sg5
F2.5377309716653644
sg6
I15
sg7
I312
sg8
S'Answer21.txt'
p885
sa(dp886
g4
F4.582159624413146
sg5
F2.4948888659403816
sg6
I18
sg7
I213
sg8
S'Answer24.txt'
p887
sa(dp888
g4
F4.7650273224043715
sg5
F2.6477087474409524
sg6
I6
sg7
I183
sg8
S'Answer26.txt'
p889
sa(dp890
g4
F4.407035175879397
sg5
F2.6618750246778826
sg6
I9
sg7
I199
sg8
S'Answer28.txt'
p891
sa(dp892
g4
F4.616216216216216
sg5
F2.508096458500439
sg6
I10
sg7
I185
sg8
S'Answer29.txt'
p893
sa(dp894
g4
F4.449275362318841
sg5
F2.380696718652877
sg6
I5
sg7
I138
sg8
S'Answer30.txt'
p895
sa(dp896
g4
F4.566265060240964
sg5
F2.7704381995080256
sg6
I13
sg7
I249
sg8
S'Answer31.txt'
p897
sa(dp898
g4
F4.274447949526814
sg5
F2.2077602081930565
sg6
I19
sg7
I317
sg8
S'Answer32.txt'
p899
sa(dp900
g4
F4.553571428571429
sg5
F2.7030822983336322
sg6
I19
sg7
I168
sg8
S'Answer35.txt'
p901
sa(dp902
g4
F4.363636363636363
sg5
F2.54389562652985
sg6
I23
sg7
I275
sg8
S'Answer36.txt'
p903
sa(dp904
g4
F4.628205128205129
sg5
F2.4131529240488465
sg6
I11
sg7
I156
sg8
S'Answer37.txt'
p905
sa(dp906
g4
F4.162679425837321
sg5
F1.9692236095743243
sg6
I19
sg7
I209
sg8
S'Answer38.txt'
p907
sa(dp908
g4
F4.532051282051282
sg5
F2.5593465507040936
sg6
I27
sg7
I312
sg8
S'Answer39.txt'
p909
sa(dp910
g4
F4.36986301369863
sg5
F2.0507723190355436
sg6
I21
sg7
I219
sg8
S'Answer41.txt'
p911
sa(dp912
g4
F4.095808383233533
sg5
F2.0096579174871865
sg6
I9
sg7
I167
sg8
S'Answer42.txt'
p913
sa(dp914
g4
F4.050632911392405
sg5
F2.0151246729481618
sg6
I15
sg7
I158
sg8
S'Answer45.txt'
p915
sa(dp916
g4
F4.445026178010472
sg5
F2.4389646490927532
sg6
I41
sg7
I382
sg8
S'Answer48.txt'
p917
sa(dp918
g4
F4.399193548387097
sg5
F2.2463948166376357
sg6
I23
sg7
I248
sg8
S'Answer49.txt'
p919
sasS'Jennifer-Apacible-1'
p920
(lp921
sS'Mohit-Arora-6'
p922
(lp923
(dp924
g4
F4.653846153846154
sg5
F2.5871537117032135
sg6
I17
sg7
I364
sg8
S'Answer1.txt'
p925
sa(dp926
g4
F4.53953488372093
sg5
F2.604480891444476
sg6
I19
sg7
I430
sg8
S'Answer2.txt'
p927
sa(dp928
g4
F4.953781512605042
sg5
F2.7166554423775175
sg6
I8
sg7
I238
sg8
S'Answer3.txt'
p929
sa(dp930
g4
F4.595744680851064
sg5
F2.787964822178671
sg6
I5
sg7
I141
sg8
S'Answer5.txt'
p931
sa(dp932
g4
F4.176470588235294
sg5
F2.080465153678594
sg6
I10
sg7
I153
sg8
S'Answer7.txt'
p933
sa(dp934
g4
F4.083333333333333
sg5
F2.0443980757336613
sg6
I14
sg7
I252
sg8
S'Answer8.txt'
p935
sa(dp936
g4
F4.5225
sg5
F2.367381200820855
sg6
I19
sg7
I400
sg8
S'Answer9.txt'
p937
sa(dp938
g4
F4.221875
sg5
F2.533060694964691
sg6
I12
sg7
I320
sg8
S'Answer11.txt'
p939
sa(dp940
g4
F4.842105263157895
sg5
F2.9456448594564937
sg6
I5
sg7
I228
sg8
S'Answer12.txt'
p941
sa(dp942
g4
F4.354166666666667
sg5
F2.380384977033944
sg6
I5
sg7
I96
sg8
S'Answer13.txt'
p943
sa(dp944
g4
F4.455384615384616
sg5
F2.2740022846366172
sg6
I15
sg7
I325
sg8
S'Answer14.txt'
p945
sa(dp946
g4
F3.990740740740741
sg5
F2.011519466078881
sg6
I3
sg7
I108
sg8
S'Answer15.txt'
p947
sa(dp948
g4
F4.386363636363637
sg5
F2.3343538696994326
sg6
I3
sg7
I132
sg8
S'Answer16.txt'
p949
sa(dp950
g4
F4.4953271028037385
sg5
F2.4163532876549243
sg6
I5
sg7
I107
sg8
S'Answer17.txt'
p951
sa(dp952
g4
F4.290909090909091
sg5
F2.317308213287976
sg6
I8
sg7
I165
sg8
S'Answer18.txt'
p953
sa(dp954
g4
F4.124444444444444
sg5
F2.323326691100554
sg6
I10
sg7
I225
sg8
S'Answer19.txt'
p955
sa(dp956
g4
F4.213114754098361
sg5
F2.291214540107215
sg6
I9
sg7
I183
sg8
S'Answer20.txt'
p957
sa(dp958
g4
F4.158333333333333
sg5
F2.061535969988286
sg6
I11
sg7
I360
sg8
S'Answer21.txt'
p959
sa(dp960
g4
F4.545454545454546
sg5
F2.6721706284907394
sg6
I4
sg7
I121
sg8
S'Answer22.txt'
p961
sa(dp962
g4
F4.572815533980583
sg5
F2.51700472481529
sg6
I19
sg7
I309
sg8
S'Answer23.txt'
p963
sa(dp964
g4
F4.451388888888889
sg5
F2.331338019223409
sg6
I13
sg7
I288
sg8
S'Answer24.txt'
p965
sa(dp966
g4
F4.395408163265306
sg5
F2.3838913772881627
sg6
I19
sg7
I392
sg8
S'Answer25.txt'
p967
sa(dp968
g4
F4.427295918367347
sg5
F2.4515342622453655
sg6
I37
sg7
I784
sg8
S'Answer28.txt'
p969
sa(dp970
g4
F4.374100719424461
sg5
F2.550986214410929
sg6
I4
sg7
I139
sg8
S'Answer29.txt'
p971
sa(dp972
g4
F4.498360655737705
sg5
F2.4037192358945356
sg6
I21
sg7
I305
sg8
S'Answer31.txt'
p973
sa(dp974
g4
F4.755102040816326
sg5
F2.40348906456119
sg6
I6
sg7
I98
sg8
S'Answer32.txt'
p975
sa(dp976
g4
F4.4148148148148145
sg5
F2.063385155282401
sg6
I8
sg7
I135
sg8
S'Answer36.txt'
p977
sa(dp978
g4
F4.566371681415929
sg5
F2.3569746102112257
sg6
I3
sg7
I113
sg8
S'Answer37.txt'
p979
sa(dp980
g4
F4.264957264957265
sg5
F2.115846448765816
sg6
I14
sg7
I234
sg8
S'Answer38.txt'
p981
sa(dp982
g4
F4.549019607843137
sg5
F2.7462182588253476
sg6
I9
sg7
I102
sg8
S'Answer39.txt'
p983
sa(dp984
g4
F4.282608695652174
sg5
F2.589804789338553
sg6
I10
sg7
I230
sg8
S'Answer41.txt'
p985
sa(dp986
g4
F4.315151515151515
sg5
F2.308892061747525
sg6
I29
sg7
I495
sg8
S'Answer42.txt'
p987
sa(dp988
g4
F4.286259541984733
sg5
F2.388370787086339
sg6
I23
sg7
I524
sg8
S'Answer43.txt'
p989
sa(dp990
g4
F4.6869565217391305
sg5
F2.513840703995809
sg6
I19
sg7
I460
sg8
S'Answer44.txt'
p991
sa(dp992
g4
F4.392712550607287
sg5
F2.656370299560095
sg6
I14
sg7
I247
sg8
S'Answer45.txt'
p993
sa(dp994
g4
F4.570048309178744
sg5
F2.4561215051189484
sg6
I8
sg7
I207
sg8
S'Answer46.txt'
p995
sa(dp996
g4
F4.576802507836991
sg5
F2.7117926253916442
sg6
I13
sg7
I319
sg8
S'Answer47.txt'
p997
sa(dp998
g4
F4.581986143187067
sg5
F2.6125207014514533
sg6
I20
sg7
I433
sg8
S'Answer48.txt'
p999
sa(dp1000
g4
F4.159663865546219
sg5
F2.118280550837317
sg6
I5
sg7
I119
sg8
S'Answer49.txt'
p1001
sa(dp1002
g4
F4.46875
sg5
F2.4952547294360006
sg6
I14
sg7
I352
sg8
S'Answer50.txt'
p1003
sasS'Joonas-Vakkilainen'
p1004
(lp1005
(dp1006
g4
F4.507177033492823
sg5
F2.490401895324949
sg6
I20
sg7
I418
sg8
S'Answer1.txt'
p1007
sa(dp1008
g4
F5.144230769230769
sg5
F3.0173162719885855
sg6
I6
sg7
I104
sg8
S'Answer2.txt'
p1009
sa(dp1010
g4
F4.4866310160427805
sg5
F2.79678633142343
sg6
I10
sg7
I187
sg8
S'Answer5.txt'
p1011
sa(dp1012
g4
F4.938223938223938
sg5
F2.7290879740178586
sg6
I10
sg7
I259
sg8
S'Answer6.txt'
p1013
sa(dp1014
g4
F4.6
sg5
F2.671329257130239
sg6
I10
sg7
I125
sg8
S'Answer7.txt'
p1015
sa(dp1016
g4
F4.242647058823529
sg5
F2.513189687398126
sg6
I6
sg7
I136
sg8
S'Answer8.txt'
p1017
sa(dp1018
g4
F5.0495049504950495
sg5
F3.1461944248387423
sg6
I10
sg7
I202
sg8
S'Answer9.txt'
p1019
sa(dp1020
g4
F4.97153024911032
sg5
F3.190160719516304
sg6
I14
sg7
I281
sg8
S'Answer10.txt'
p1021
sa(dp1022
g4
F5.10831234256927
sg5
F2.7782633111114263
sg6
I23
sg7
I397
sg8
S'Answer11.txt'
p1023
sa(dp1024
g4
F5.656387665198238
sg5
F3.2306340929711044
sg6
I10
sg7
I227
sg8
S'Answer12.txt'
p1025
sa(dp1026
g4
F4.690821256038648
sg5
F2.504307940876396
sg6
I11
sg7
I207
sg8
S'Answer14.txt'
p1027
sa(dp1028
g4
F4.74468085106383
sg5
F2.627336529371424
sg6
I24
sg7
I376
sg8
S'Answer16.txt'
p1029
sa(dp1030
g4
F5.109223300970874
sg5
F2.803467405522311
sg6
I17
sg7
I412
sg8
S'Answer17.txt'
p1031
sa(dp1032
g4
F4.3871681415929205
sg5
F2.472524047692695
sg6
I28
sg7
I452
sg8
S'Answer18.txt'
p1033
sa(dp1034
g4
F5.354497354497354
sg5
F3.099111220303834
sg6
I12
sg7
I189
sg8
S'Answer19.txt'
p1035
sa(dp1036
g4
F5.307017543859649
sg5
F3.8687392954985116
sg6
I6
sg7
I114
sg8
S'Answer20.txt'
p1037
sa(dp1038
g4
F4.361702127659575
sg5
F2.6370965006660767
sg6
I13
sg7
I188
sg8
S'Answer22.txt'
p1039
sa(dp1040
g4
F5.0519480519480515
sg5
F2.8302452919995846
sg6
I10
sg7
I154
sg8
S'Answer23.txt'
p1041
sa(dp1042
g4
F4.9671875
sg5
F2.819660589475932
sg6
I26
sg7
I640
sg8
S'Answer24.txt'
p1043
sa(dp1044
g4
F5.058455114822547
sg5
F2.9229361709890838
sg6
I21
sg7
I479
sg8
S'Answer25.txt'
p1045
sa(dp1046
g4
F5.163265306122449
sg5
F2.515369940270294
sg6
I11
sg7
I147
sg8
S'Answer26.txt'
p1047
sa(dp1048
g4
F5.031311154598826
sg5
F2.8399922209612036
sg6
I24
sg7
I511
sg8
S'Answer27.txt'
p1049
sag1048
a(dp1050
g4
F4.995833333333334
sg5
F3.0214482132837492
sg6
I15
sg7
I240
sg8
S'Answer28.txt'
p1051
sa(dp1052
g4
F5.509708737864078
sg5
F3.3352199549918873
sg6
I14
sg7
I206
sg8
S'Answer29.txt'
p1053
sa(dp1054
g4
F4.439655172413793
sg5
F2.526715167221337
sg6
I7
sg7
I116
sg8
S'Answer31.txt'
p1055
sa(dp1056
g4
F5.112903225806452
sg5
F2.902195157560954
sg6
I21
sg7
I310
sg8
S'Answer32.txt'
p1057
sa(dp1058
g4
F4.806060606060606
sg5
F2.8938743448186592
sg6
I9
sg7
I165
sg8
S'Answer33.txt'
p1059
sa(dp1060
g4
F5.13134328358209
sg5
F3.115785948390269
sg6
I13
sg7
I335
sg8
S'Answer34.txt'
p1061
sa(dp1062
g4
F4.846938775510204
sg5
F2.723113617123195
sg6
I6
sg7
I98
sg8
S'Answer35.txt'
p1063
sa(dp1064
g4
F5.415094339622642
sg5
F3.0924983016676038
sg6
I9
sg7
I106
sg8
S'Answer36.txt'
p1065
sa(dp1066
g4
F6.456521739130435
sg5
F9.366235663829784
sg6
I5
sg7
I92
sg8
S'Answer37.txt'
p1067
sa(dp1068
g4
F4.819047619047619
sg5
F2.757780171428265
sg6
I26
sg7
I420
sg8
S'Answer38.txt'
p1069
sa(dp1070
g4
F4.732793522267206
sg5
F2.4711815696301027
sg6
I14
sg7
I247
sg8
S'Answer39.txt'
p1071
sa(dp1072
g4
F5.046632124352332
sg5
F3.225208601423879
sg6
I20
sg7
I386
sg8
S'Answer40.txt'
p1073
sa(dp1074
g4
F5.207920792079208
sg5
F2.941902232604168
sg6
I22
sg7
I404
sg8
S'Answer42.txt'
p1075
sa(dp1076
g4
F4.436507936507937
sg5
F2.9560162803910606
sg6
I11
sg7
I126
sg8
S'Answer43.txt'
p1077
sa(dp1078
g4
F4.404255319148936
sg5
F3.2626811482640554
sg6
I9
sg7
I94
sg8
S'Answer44.txt'
p1079
sa(dp1080
g4
F5.044444444444444
sg5
F2.7564514672596765
sg6
I7
sg7
I90
sg8
S'Answer46.txt'
p1081
sa(dp1082
g4
F5.24
sg5
F3.7207443424049496
sg6
I34
sg7
I650
sg8
S'Answer47.txt'
p1083
sag1082
a(dp1084
g4
F4.867924528301887
sg5
F2.756611737447547
sg6
I9
sg7
I159
sg8
S'Answer49.txt'
p1085
sa(dp1086
g4
F5.209580838323354
sg5
F2.955421964116146
sg6
I19
sg7
I334
sg8
S'Answer50.txt'
p1087
sasS'Abhijeet-Borkar'
p1088
(lp1089
(dp1090
g4
F5.005524861878453
sg5
F2.7861084715293742
sg6
I5
sg7
I181
sg8
S'Answer1.txt'
p1091
sa(dp1092
g4
F4.72093023255814
sg5
F2.8256212712916633
sg6
I5
sg7
I129
sg8
S'Answer2.txt'
p1093
sa(dp1094
g4
F4.900584795321637
sg5
F2.990540585136366
sg6
I15
sg7
I342
sg8
S'Answer3.txt'
p1095
sa(dp1096
g4
F5.382629107981221
sg5
F3.082066655967839
sg6
I18
sg7
I426
sg8
S'Answer4.txt'
p1097
sa(dp1098
g4
F4.63302752293578
sg5
F2.5509866789028397
sg6
I1
sg7
I109
sg8
S'Answer5.txt'
p1099
sa(dp1100
g4
F4.714285714285714
sg5
F2.803059552906941
sg6
I4
sg7
I98
sg8
S'Answer6.txt'
p1101
sa(dp1102
g4
F5.186495176848875
sg5
F3.3341183168779986
sg6
I8
sg7
I311
sg8
S'Answer7.txt'
p1103
sa(dp1104
g4
F5.3076923076923075
sg5
F3.827390127407542
sg6
I3
sg7
I156
sg8
S'Answer8.txt'
p1105
sa(dp1106
g4
F4.307262569832402
sg5
F2.3014454513835307
sg6
I5
sg7
I179
sg8
S'Answer9.txt'
p1107
sa(dp1108
g4
F4.666115702479339
sg5
F2.568259973678302
sg6
I19
sg7
I605
sg8
S'Answer10.txt'
p1109
sa(dp1110
g4
F5.806451612903226
sg5
F4.157537692795284
sg6
I5
sg7
I186
sg8
S'Answer11.txt'
p1111
sa(dp1112
g4
F4.418478260869565
sg5
F2.798269237901935
sg6
I5
sg7
I184
sg8
S'Answer12.txt'
p1113
sa(dp1114
g4
F4.827893175074184
sg5
F3.0949455320175203
sg6
I33
sg7
I674
sg8
S'Answer13.txt'
p1115
sag1114
a(dp1116
g4
F5.246376811594203
sg5
F2.9344157938591002
sg6
I7
sg7
I207
sg8
S'Answer14.txt'
p1117
sa(dp1118
g4
F4.833333333333333
sg5
F3.086419553962557
sg6
I10
sg7
I186
sg8
S'Answer15.txt'
p1119
sa(dp1120
g4
F4.532258064516129
sg5
F2.9018963503244497
sg6
I5
sg7
I186
sg8
S'Answer16.txt'
p1121
sa(dp1122
g4
F5.018610421836228
sg5
F3.0350967795330774
sg6
I29
sg7
I806
sg8
S'Answer17.txt'
p1123
sa(dp1124
g4
F4.574011299435028
sg5
F2.7176764460489236
sg6
I34
sg7
I885
sg8
S'Answer18.txt'
p1125
sa(dp1126
g4
F4.46969696969697
sg5
F2.7918696731418176
sg6
I4
sg7
I132
sg8
S'Answer19.txt'
p1127
sa(dp1128
g4
F4.585774058577406
sg5
F2.6560041965416223
sg6
I14
sg7
I478
sg8
S'Answer20.txt'
p1129
sa(dp1130
g4
F4.753371868978806
sg5
F2.5033432748030235
sg6
I21
sg7
I519
sg8
S'Answer21.txt'
p1131
sa(dp1132
g4
F4.846153846153846
sg5
F2.659414448163465
sg6
I5
sg7
I104
sg8
S'Answer22.txt'
p1133
sa(dp1134
g4
F4.458646616541353
sg5
F2.58541681808571
sg6
I3
sg7
I133
sg8
S'Answer23.txt'
p1135
sa(dp1136
g4
F4.723785166240409
sg5
F2.992816975268049
sg6
I16
sg7
I391
sg8
S'Answer24.txt'
p1137
sa(dp1138
g4
F5.0
sg5
F2.8585710716070314
sg6
I4
sg7
I140
sg8
S'Answer25.txt'
p1139
sa(dp1140
g4
F4.966292134831461
sg5
F3.0407326076229926
sg6
I4
sg7
I89
sg8
S'Answer27.txt'
p1141
sa(dp1142
g4
F4.770053475935829
sg5
F2.6849872777412354
sg6
I20
sg7
I374
sg8
S'Answer28.txt'
p1143
sa(dp1144
g4
F4.465648854961832
sg5
F2.741531610496885
sg6
I5
sg7
I131
sg8
S'Answer29.txt'
p1145
sa(dp1146
g4
F4.744645799011532
sg5
F2.9435714723660307
sg6
I16
sg7
I607
sg8
S'Answer30.txt'
p1147
sa(dp1148
g4
F4.4787234042553195
sg5
F2.656700574918331
sg6
I3
sg7
I94
sg8
S'Answer31.txt'
p1149
sa(dp1150
g4
F4.593123209169055
sg5
F2.4833101901652967
sg6
I7
sg7
I349
sg8
S'Answer32.txt'
p1151
sa(dp1152
g4
F5.068601583113456
sg5
F3.1972185961479425
sg6
I14
sg7
I379
sg8
S'Answer33.txt'
p1153
sa(dp1154
g4
F4.782258064516129
sg5
F2.603225306791335
sg6
I17
sg7
I620
sg8
S'Answer34.txt'
p1155
sa(dp1156
g4
F5.540880503144654
sg5
F3.9073260305470994
sg6
I8
sg7
I159
sg8
S'Answer35.txt'
p1157
sa(dp1158
g4
F4.5136612021857925
sg5
F2.478008021389054
sg6
I6
sg7
I183
sg8
S'Answer36.txt'
p1159
sa(dp1160
g4
F5.2875
sg5
F2.569989056396933
sg6
I3
sg7
I80
sg8
S'Answer37.txt'
p1161
sa(dp1162
g4
F4.970760233918129
sg5
F2.9128208240533007
sg6
I7
sg7
I171
sg8
S'Answer38.txt'
p1163
sa(dp1164
g4
F4.704663212435233
sg5
F3.069291156380626
sg6
I6
sg7
I193
sg8
S'Answer39.txt'
p1165
sa(dp1166
g4
F4.838028169014085
sg5
F2.5369679620604315
sg6
I17
sg7
I426
sg8
S'Answer40.txt'
p1167
sa(dp1168
g4
F4.903954802259887
sg5
F3.074744242396312
sg6
I5
sg7
I177
sg8
S'Answer41.txt'
p1169
sa(dp1170
g4
F5.151832460732984
sg5
F3.2957189895066095
sg6
I6
sg7
I191
sg8
S'Answer42.txt'
p1171
sa(dp1172
g4
F4.234285714285714
sg5
F2.118482321601664
sg6
I8
sg7
I175
sg8
S'Answer43.txt'
p1173
sa(dp1174
g4
F4.893719806763285
sg5
F3.171172869896422
sg6
I10
sg7
I207
sg8
S'Answer44.txt'
p1175
sa(dp1176
g4
F4.655430711610487
sg5
F2.580755358945749
sg6
I10
sg7
I267
sg8
S'Answer45.txt'
p1177
sa(dp1178
g4
F4.539877300613497
sg5
F2.3135912083649064
sg6
I28
sg7
I652
sg8
S'Answer46.txt'
p1179
sag1178
a(dp1180
g4
F5.043478260869565
sg5
F2.873843977332304
sg6
I7
sg7
I230
sg8
S'Answer47.txt'
p1181
sa(dp1182
g4
F5.039408866995074
sg5
F3.127570650317791
sg6
I5
sg7
I203
sg8
S'Answer48.txt'
p1183
sa(dp1184
g4
F4.851851851851852
sg5
F2.827165884948225
sg6
I5
sg7
I135
sg8
S'Answer50.txt'
p1185
sasS'Bhavesh-Aggarwal'
p1186
(lp1187
(dp1188
g4
F4.925974025974026
sg5
F2.661603002849969
sg6
I36
sg7
I770
sg8
S'Answer1.txt'
p1189
sa(dp1190
g4
F4.698630136986301
sg5
F2.615469949164426
sg6
I15
sg7
I292
sg8
S'Answer2.txt'
p1191
sa(dp1192
g4
F4.144230769230769
sg5
F2.0866713888887967
sg6
I3
sg7
I104
sg8
S'Answer3.txt'
p1193
sa(dp1194
g4
F4.707070707070707
sg5
F2.7606635319094313
sg6
I4
sg7
I99
sg8
S'Answer4.txt'
p1195
sa(dp1196
g4
F4.970873786407767
sg5
F2.5138695298675175
sg6
I4
sg7
I103
sg8
S'Answer5.txt'
p1197
sa(dp1198
g4
F4.714285714285714
sg5
F2.9464826834857893
sg6
I24
sg7
I448
sg8
S'Answer6.txt'
p1199
sa(dp1200
g4
F4.9
sg5
F2.961124933123424
sg6
I9
sg7
I230
sg8
S'Answer7.txt'
p1201
sa(dp1202
g4
F4.555555555555555
sg5
F2.4742501046270386
sg6
I6
sg7
I144
sg8
S'Answer8.txt'
p1203
sa(dp1204
g4
F5.19
sg5
F2.764760387447708
sg6
I10
sg7
I200
sg8
S'Answer10.txt'
p1205
sa(dp1206
g4
F4.889285714285714
sg5
F2.834461310084749
sg6
I11
sg7
I280
sg8
S'Answer12.txt'
p1207
sa(dp1208
g4
F4.574257425742574
sg5
F2.830806021685671
sg6
I12
sg7
I303
sg8
S'Answer13.txt'
p1209
sa(dp1210
g4
F4.491379310344827
sg5
F2.7993093041430064
sg6
I6
sg7
I116
sg8
S'Answer14.txt'
p1211
sa(dp1212
g4
F4.691126279863481
sg5
F2.9370801876050328
sg6
I34
sg7
I586
sg8
S'Answer15.txt'
p1213
sa(dp1214
g4
F4.627155172413793
sg5
F2.7309283207662034
sg6
I42
sg7
I464
sg8
S'Answer16.txt'
p1215
sag1214
a(dp1216
g4
F4.783505154639175
sg5
F2.6466349150732476
sg6
I6
sg7
I194
sg8
S'Answer17.txt'
p1217
sa(dp1218
g4
F4.589041095890411
sg5
F2.635387643265143
sg6
I13
sg7
I219
sg8
S'Answer20.txt'
p1219
sa(dp1220
g4
F4.53416149068323
sg5
F2.8785586798430285
sg6
I9
sg7
I161
sg8
S'Answer22.txt'
p1221
sa(dp1222
g4
F4.797979797979798
sg5
F2.674155386265896
sg6
I5
sg7
I99
sg8
S'Answer23.txt'
p1223
sa(dp1224
g4
F4.7250341997264025
sg5
F2.9398278968548204
sg6
I39
sg7
I731
sg8
S'Answer24.txt'
p1225
sa(dp1226
g4
F4.7214285714285715
sg5
F2.7239708160703078
sg6
I26
sg7
I420
sg8
S'Answer25.txt'
p1227
sa(dp1228
g4
F4.960691823899371
sg5
F3.000004532385852
sg6
I28
sg7
I636
sg8
S'Answer26.txt'
p1229
sa(dp1230
g4
F4.976842105263158
sg5
F3.024373014851837
sg6
I30
sg7
I475
sg8
S'Answer27.txt'
p1231
sa(dp1232
g4
F4.6650165016501655
sg5
F3.1436977527720145
sg6
I36
sg7
I606
sg8
S'Answer29.txt'
p1233
sa(dp1234
g4
F4.299479166666667
sg5
F2.3873363250142674
sg6
I28
sg7
I384
sg8
S'Answer30.txt'
p1235
sa(dp1236
g4
F4.72
sg5
F2.809667521068528
sg6
I25
sg7
I475
sg8
S'Answer32.txt'
p1237
sa(dp1238
g4
F4.808383233532934
sg5
F2.6685141269154293
sg6
I25
sg7
I501
sg8
S'Answer33.txt'
p1239
sa(dp1240
g4
F4.903930131004367
sg5
F2.4476050703230623
sg6
I15
sg7
I229
sg8
S'Answer34.txt'
p1241
sa(dp1242
g4
F4.436619718309859
sg5
F2.4565657602146698
sg6
I7
sg7
I142
sg8
S'Answer36.txt'
p1243
sa(dp1244
g4
F4.879194630872483
sg5
F2.8043895402854497
sg6
I3
sg7
I149
sg8
S'Answer37.txt'
p1245
sa(dp1246
g4
F4.553826199740596
sg5
F3.154581255232387
sg6
I36
sg7
I771
sg8
S'Answer38.txt'
p1247
sa(dp1248
g4
F4.785356068204614
sg5
F2.966896294017388
sg6
I41
sg7
I997
sg8
S'Answer39.txt'
p1249
sag1248
a(dp1250
g4
F4.7799511002444985
sg5
F2.7673416754548206
sg6
I27
sg7
I409
sg8
S'Answer40.txt'
p1251
sa(dp1252
g4
F4.8558558558558556
sg5
F3.9246204770821307
sg6
I4
sg7
I111
sg8
S'Answer41.txt'
p1253
sa(dp1254
g4
F4.733333333333333
sg5
F2.540547005069446
sg6
I12
sg7
I255
sg8
S'Answer42.txt'
p1255
sa(dp1256
g4
F4.809716599190283
sg5
F2.7618399371998947
sg6
I11
sg7
I247
sg8
S'Answer43.txt'
p1257
sa(dp1258
g4
F5.020408163265306
sg5
F2.890800298189933
sg6
I6
sg7
I196
sg8
S'Answer44.txt'
p1259
sa(dp1260
g4
F4.401408450704225
sg5
F2.537215561397771
sg6
I8
sg7
I142
sg8
S'Answer45.txt'
p1261
sa(dp1262
g4
F5.18491921005386
sg5
F3.3103811800466825
sg6
I28
sg7
I557
sg8
S'Answer46.txt'
p1263
sa(dp1264
g4
F4.597560975609756
sg5
F2.5536189341630675
sg6
I6
sg7
I164
sg8
S'Answer50.txt'
p1265
sasS'Tatiana-Est\xc3\xa9vez'
p1266
(lp1267
(dp1268
g4
F4.571428571428571
sg5
F2.3243908225652965
sg6
I4
sg7
I133
sg8
S'Answer1.txt'
p1269
sa(dp1270
g4
F4.5978260869565215
sg5
F2.5326553457170276
sg6
I4
sg7
I92
sg8
S'Answer3.txt'
p1271
sa(dp1272
g4
F4.860927152317881
sg5
F3.47372299676721
sg6
I5
sg7
I151
sg8
S'Answer4.txt'
p1273
sa(dp1274
g4
F4.481012658227848
sg5
F2.511714794878241
sg6
I21
sg7
I474
sg8
S'Answer6.txt'
p1275
sag1274
a(dp1276
g4
F4.129032258064516
sg5
F2.067286447743497
sg6
I6
sg7
I186
sg8
S'Answer7.txt'
p1277
sa(dp1278
g4
F4.634615384615385
sg5
F2.4842381403128986
sg6
I16
sg7
I364
sg8
S'Answer8.txt'
p1279
sa(dp1280
g4
F4.244635193133047
sg5
F2.3612172190054874
sg6
I38
sg7
I932
sg8
S'Answer10.txt'
p1281
sa(dp1282
g4
F4.5550660792951545
sg5
F2.706707017964093
sg6
I14
sg7
I454
sg8
S'Answer11.txt'
p1283
sa(dp1284
g4
F4.718527315914489
sg5
F2.8730649739025655
sg6
I37
sg7
I842
sg8
S'Answer12.txt'
p1285
sa(dp1286
g4
F4.78125
sg5
F2.8401992484389775
sg6
I10
sg7
I288
sg8
S'Answer13.txt'
p1287
sa(dp1288
g4
F4.476923076923077
sg5
F2.416445953329991
sg6
I9
sg7
I195
sg8
S'Answer14.txt'
p1289
sa(dp1290
g4
F4.206185567010309
sg5
F2.430214212822411
sg6
I23
sg7
I582
sg8
S'Answer15.txt'
p1291
sag1290
a(dp1292
g4
F4.569148936170213
sg5
F2.611452949936668
sg6
I7
sg7
I188
sg8
S'Answer16.txt'
p1293
sa(dp1294
g4
F5.1344537815126055
sg5
F2.9015335549589825
sg6
I13
sg7
I238
sg8
S'Answer17.txt'
p1295
sa(dp1296
g4
F4.845744680851064
sg5
F2.890305324871812
sg6
I8
sg7
I188
sg8
S'Answer18.txt'
p1297
sa(dp1298
g4
F4.511210762331839
sg5
F2.5759511918945943
sg6
I8
sg7
I223
sg8
S'Answer20.txt'
p1299
sa(dp1300
g4
F4.427631578947368
sg5
F2.579274616723946
sg6
I5
sg7
I152
sg8
S'Answer22.txt'
p1301
sa(dp1302
g4
F4.647865853658536
sg5
F2.603836584276077
sg6
I24
sg7
I656
sg8
S'Answer23.txt'
p1303
sag1302
a(dp1304
g4
F4.832214765100671
sg5
F2.9908196999093537
sg6
I6
sg7
I149
sg8
S'Answer25.txt'
p1305
sa(dp1306
g4
F4.02536231884058
sg5
F2.152536811252603
sg6
I9
sg7
I276
sg8
S'Answer28.txt'
p1307
sa(dp1308
g4
F4.2633053221288515
sg5
F2.2955622147021657
sg6
I11
sg7
I357
sg8
S'Answer30.txt'
p1309
sa(dp1310
g4
F4.244094488188976
sg5
F2.292461234297546
sg6
I7
sg7
I127
sg8
S'Answer32.txt'
p1311
sa(dp1312
g4
F4.515822784810126
sg5
F2.4539563032407554
sg6
I20
sg7
I632
sg8
S'Answer33.txt'
p1313
sa(dp1314
g4
F5.404255319148936
sg5
F4.992162258973411
sg6
I3
sg7
I94
sg8
S'Answer34.txt'
p1315
sa(dp1316
g4
F4.591025641025641
sg5
F2.7685359408453967
sg6
I19
sg7
I780
sg8
S'Answer35.txt'
p1317
sa(dp1318
g4
F4.257731958762887
sg5
F2.3343174923214747
sg6
I4
sg7
I97
sg8
S'Answer36.txt'
p1319
sa(dp1320
g4
F4.389830508474576
sg5
F2.8848931428822304
sg6
I4
sg7
I118
sg8
S'Answer38.txt'
p1321
sa(dp1322
g4
F5.062730627306273
sg5
F2.885217175973172
sg6
I9
sg7
I271
sg8
S'Answer39.txt'
p1323
sa(dp1324
g4
F4.753086419753086
sg5
F2.5387411296537934
sg6
I7
sg7
I162
sg8
S'Answer40.txt'
p1325
sa(dp1326
g4
F4.384831460674158
sg5
F2.3810334893093157
sg6
I19
sg7
I356
sg8
S'Answer41.txt'
p1327
sa(dp1328
g4
F4.460176991150442
sg5
F2.3762668655817563
sg6
I6
sg7
I113
sg8
S'Answer43.txt'
p1329
sa(dp1330
g4
F4.783057851239669
sg5
F2.728113913600174
sg6
I19
sg7
I484
sg8
S'Answer44.txt'
p1331
sa(dp1332
g4
F4.659133709981168
sg5
F2.617233628708767
sg6
I22
sg7
I531
sg8
S'Answer45.txt'
p1333
sa(dp1334
g4
F4.6371681415929205
sg5
F2.335042577552932
sg6
I5
sg7
I113
sg8
S'Answer46.txt'
p1335
sa(dp1336
g4
F4.989517819706499
sg5
F2.8012229992649926
sg6
I16
sg7
I477
sg8
S'Answer47.txt'
p1337
sa(dp1338
g4
F4.276785714285714
sg5
F3.015465557009432
sg6
I5
sg7
I112
sg8
S'Answer48.txt'
p1339
sa(dp1340
g4
F4.654545454545454
sg5
F2.490356054510464
sg6
I16
sg7
I495
sg8
S'Answer49.txt'
p1341
sa(dp1342
g4
F4.121212121212121
sg5
F2.4184590104667096
sg6
I6
sg7
I132
sg8
S'Answer50.txt'
p1343
sasS'Xu-Beixi'
p1344
(lp1345
(dp1346
g4
F4.67910447761194
sg5
F2.669900624984643
sg6
I8
sg7
I134
sg8
S'Answer1.txt'
p1347
sa(dp1348
g4
F5.142857142857143
sg5
F3.138012795427573
sg6
I13
sg7
I385
sg8
S'Answer2.txt'
p1349
sa(dp1350
g4
F4.876106194690266
sg5
F2.8830684961208335
sg6
I10
sg7
I226
sg8
S'Answer3.txt'
p1351
sa(dp1352
g4
F4.75
sg5
F2.6035378028576983
sg6
I5
sg7
I88
sg8
S'Answer5.txt'
p1353
sa(dp1354
g4
F4.96137339055794
sg5
F2.5597179637047005
sg6
I15
sg7
I233
sg8
S'Answer6.txt'
p1355
sa(dp1356
g4
F5.166051660516605
sg5
F2.961952878325338
sg6
I12
sg7
I271
sg8
S'Answer7.txt'
p1357
sa(dp1358
g4
F4.7556390977443606
sg5
F2.7013756877916246
sg6
I15
sg7
I266
sg8
S'Answer8.txt'
p1359
sa(dp1360
g4
F5.08256880733945
sg5
F3.2527432046439344
sg6
I7
sg7
I218
sg8
S'Answer9.txt'
p1361
sa(dp1362
g4
F4.91764705882353
sg5
F2.6146424703927584
sg6
I6
sg7
I255
sg8
S'Answer10.txt'
p1363
sa(dp1364
g4
F5.081521739130435
sg5
F2.96059003181527
sg6
I12
sg7
I368
sg8
S'Answer12.txt'
p1365
sa(dp1366
g4
F5.4035087719298245
sg5
F3.5418615176425194
sg6
I3
sg7
I171
sg8
S'Answer13.txt'
p1367
sa(dp1368
g4
F5.055045871559633
sg5
F2.9918386307405056
sg6
I2
sg7
I109
sg8
S'Answer14.txt'
p1369
sa(dp1370
g4
F4.687096774193549
sg5
F2.8458506223672964
sg6
I12
sg7
I310
sg8
S'Answer16.txt'
p1371
sa(dp1372
g4
F4.7749077490774905
sg5
F2.9279599919973283
sg6
I10
sg7
I271
sg8
S'Answer17.txt'
p1373
sa(dp1374
g4
F5.009090909090909
sg5
F2.852416693215692
sg6
I5
sg7
I110
sg8
S'Answer18.txt'
p1375
sa(dp1376
g4
F4.71484375
sg5
F3.466459600671258
sg6
I7
sg7
I256
sg8
S'Answer19.txt'
p1377
sa(dp1378
g4
F4.42570281124498
sg5
F2.3617394566455534
sg6
I14
sg7
I249
sg8
S'Answer20.txt'
p1379
sa(dp1380
g4
F5.514792899408284
sg5
F3.6796361231145482
sg6
I5
sg7
I169
sg8
S'Answer22.txt'
p1381
sa(dp1382
g4
F5.6992481203007515
sg5
F3.73961712970488
sg6
I9
sg7
I266
sg8
S'Answer23.txt'
p1383
sa(dp1384
g4
F5.71578947368421
sg5
F5.851968913639664
sg6
I3
sg7
I95
sg8
S'Answer24.txt'
p1385
sa(dp1386
g4
F5.660406885758999
sg5
F3.363550432048754
sg6
I26
sg7
I639
sg8
S'Answer27.txt'
p1387
sag1386
a(dp1388
g4
F4.744939271255061
sg5
F2.826946088377955
sg6
I30
sg7
I494
sg8
S'Answer28.txt'
p1389
sag1388
a(dp1390
g4
F5.977777777777778
sg5
F4.126637348067933
sg6
I4
sg7
I135
sg8
S'Answer30.txt'
p1391
sa(dp1392
g4
F5.271676300578035
sg5
F3.0385112093272104
sg6
I8
sg7
I346
sg8
S'Answer31.txt'
p1393
sa(dp1394
g4
F4.94017094017094
sg5
F4.499364814222472
sg6
I6
sg7
I117
sg8
S'Answer32.txt'
p1395
sa(dp1396
g4
F5.660194174757281
sg5
F6.162135233984065
sg6
I3
sg7
I103
sg8
S'Answer34.txt'
p1397
sa(dp1398
g4
F4.57201646090535
sg5
F2.695438695471653
sg6
I12
sg7
I243
sg8
S'Answer35.txt'
p1399
sa(dp1400
g4
F4.916666666666667
sg5
F2.678878289301119
sg6
I5
sg7
I120
sg8
S'Answer36.txt'
p1401
sa(dp1402
g4
F5.596707818930041
sg5
F3.3520937295100173
sg6
I6
sg7
I243
sg8
S'Answer38.txt'
p1403
sa(dp1404
g4
F4.784090909090909
sg5
F2.76112980678514
sg6
I21
sg7
I352
sg8
S'Answer41.txt'
p1405
sa(dp1406
g4
F4.911111111111111
sg5
F2.7432521026630847
sg6
I3
sg7
I90
sg8
S'Answer42.txt'
p1407
sa(dp1408
g4
F4.96875
sg5
F2.82272447070202
sg6
I4
sg7
I96
sg8
S'Answer44.txt'
p1409
sa(dp1410
g4
F5.216748768472907
sg5
F3.4686939480668566
sg6
I9
sg7
I203
sg8
S'Answer45.txt'
p1411
sa(dp1412
g4
F4.9636871508379885
sg5
F2.736331155512465
sg6
I14
sg7
I358
sg8
S'Answer48.txt'
p1413
sa(dp1414
g4
F5.581967213114754
sg5
F3.931462339902616
sg6
I4
sg7
I122
sg8
S'Answer49.txt'
p1415
sa(dp1416
g4
F5.185
sg5
F3.1322156694582826
sg6
I6
sg7
I200
sg8
S'Answer50.txt'
p1417
sasS'Tejasvita-Apte'
p1418
(lp1419
(dp1420
g4
F4.321917808219178
sg5
F2.602777577230178
sg6
I59
sg7
I730
sg8
S'Answer2.txt'
p1421
sag1420
a(dp1422
g4
F5.146245059288537
sg5
F3.307429015252504
sg6
I32
sg7
I759
sg8
S'Answer3.txt'
p1423
sa(dp1424
g4
F4.6909090909090905
sg5
F2.913122206797292
sg6
I12
sg7
I110
sg8
S'Answer4.txt'
p1425
sa(dp1426
g4
F4.506147540983607
sg5
F2.634100756976427
sg6
I28
sg7
I488
sg8
S'Answer5.txt'
p1427
sa(dp1428
g4
F4.093525179856115
sg5
F2.278747877597201
sg6
I15
sg7
I139
sg8
S'Answer6.txt'
p1429
sa(dp1430
g4
F4.396396396396397
sg5
F2.5158212145163334
sg6
I10
sg7
I111
sg8
S'Answer7.txt'
p1431
sa(dp1432
g4
F4.317120622568093
sg5
F2.568633506459918
sg6
I41
sg7
I514
sg8
S'Answer8.txt'
p1433
sa(dp1434
g4
F4.7330827067669174
sg5
F2.688075080755023
sg6
I15
sg7
I266
sg8
S'Answer9.txt'
p1435
sa(dp1436
g4
F4.601851851851852
sg5
F2.5274046665349217
sg6
I12
sg7
I108
sg8
S'Answer10.txt'
p1437
sa(dp1438
g4
F4.995260663507109
sg5
F2.9134394102945325
sg6
I33
sg7
I633
sg8
S'Answer11.txt'
p1439
sag1438
a(dp1440
g4
F4.254237288135593
sg5
F2.4271991275359532
sg6
I14
sg7
I295
sg8
S'Answer12.txt'
p1441
sa(dp1442
g4
F4.381048387096774
sg5
F2.672659457975122
sg6
I37
sg7
I496
sg8
S'Answer13.txt'
p1443
sag1442
a(dp1444
g4
F4.673267326732673
sg5
F2.8601353941886862
sg6
I12
sg7
I101
sg8
S'Answer14.txt'
p1445
sa(dp1446
g4
F4.947852760736196
sg5
F2.869403593859808
sg6
I28
sg7
I326
sg8
S'Answer15.txt'
p1447
sa(dp1448
g4
F4.608247422680412
sg5
F2.9177382653058737
sg6
I26
sg7
I291
sg8
S'Answer16.txt'
p1449
sa(dp1450
g4
F4.550813008130081
sg5
F2.626370983366555
sg6
I51
sg7
I492
sg8
S'Answer17.txt'
p1451
sa(dp1452
g4
F5.08300395256917
sg5
F2.747083913471222
sg6
I33
sg7
I506
sg8
S'Answer19.txt'
p1453
sa(dp1454
g4
F4.369942196531792
sg5
F2.363405619826269
sg6
I14
sg7
I173
sg8
S'Answer20.txt'
p1455
sa(dp1456
g4
F4.428571428571429
sg5
F2.7769704042085763
sg6
I4
sg7
I105
sg8
S'Answer21.txt'
p1457
sa(dp1458
g4
F4.596747967479675
sg5
F2.5939245765513927
sg6
I53
sg7
I615
sg8
S'Answer22.txt'
p1459
sa(dp1460
g4
F4.97972972972973
sg5
F3.875197631568061
sg6
I53
sg7
I740
sg8
S'Answer23.txt'
p1461
sa(dp1462
g4
F4.363636363636363
sg5
F2.5489486507993746
sg6
I10
sg7
I143
sg8
S'Answer24.txt'
p1463
sa(dp1464
g4
F4.540816326530612
sg5
F2.5347987643574132
sg6
I21
sg7
I294
sg8
S'Answer25.txt'
p1465
sa(dp1466
g4
F4.483370288248337
sg5
F2.412378129987928
sg6
I46
sg7
I451
sg8
S'Answer26.txt'
p1467
sa(dp1468
g4
F4.097938144329897
sg5
F2.3694133155892
sg6
I19
sg7
I194
sg8
S'Answer27.txt'
p1469
sa(dp1470
g4
F4.717277486910994
sg5
F2.7626273482700077
sg6
I16
sg7
I382
sg8
S'Answer28.txt'
p1471
sa(dp1472
g4
F4.3768115942028984
sg5
F2.5458203841338403
sg6
I24
sg7
I276
sg8
S'Answer29.txt'
p1473
sa(dp1474
g4
F3.806282722513089
sg5
F2.0540248584233023
sg6
I16
sg7
I191
sg8
S'Answer30.txt'
p1475
sa(dp1476
g4
F4.762312633832977
sg5
F2.643166901356616
sg6
I40
sg7
I467
sg8
S'Answer31.txt'
p1477
sa(dp1478
g4
F4.816091954022989
sg5
F3.0570391190582606
sg6
I8
sg7
I87
sg8
S'Answer32.txt'
p1479
sa(dp1480
g4
F3.916201117318436
sg5
F2.2716900124410575
sg6
I21
sg7
I179
sg8
S'Answer33.txt'
p1481
sa(dp1482
g4
F4.204878048780488
sg5
F2.1429352128777293
sg6
I15
sg7
I205
sg8
S'Answer34.txt'
p1483
sa(dp1484
g4
F5.041958041958042
sg5
F2.9680681147682337
sg6
I11
sg7
I143
sg8
S'Answer35.txt'
p1485
sa(dp1486
g4
F4.78125
sg5
F3.6617480030034835
sg6
I12
sg7
I160
sg8
S'Answer36.txt'
p1487
sa(dp1488
g4
F4.8469945355191255
sg5
F3.177547467320347
sg6
I19
sg7
I183
sg8
S'Answer37.txt'
p1489
sa(dp1490
g4
F4.792079207920792
sg5
F2.7288950060642074
sg6
I27
sg7
I404
sg8
S'Answer38.txt'
p1491
sa(dp1492
g4
F4.413793103448276
sg5
F2.5933235416500917
sg6
I13
sg7
I174
sg8
S'Answer39.txt'
p1493
sa(dp1494
g4
F4.895104895104895
sg5
F3.6579509849883767
sg6
I8
sg7
I143
sg8
S'Answer40.txt'
p1495
sa(dp1496
g4
F5.972477064220183
sg5
F3.810797589458482
sg6
I10
sg7
I109
sg8
S'Answer41.txt'
p1497
sa(dp1498
g4
F4.406349206349207
sg5
F2.3394391551383817
sg6
I22
sg7
I315
sg8
S'Answer42.txt'
p1499
sa(dp1500
g4
F4.035714285714286
sg5
F2.3258200221664214
sg6
I34
sg7
I336
sg8
S'Answer43.txt'
p1501
sa(dp1502
g4
F4.680327868852459
sg5
F2.6758372167482105
sg6
I17
sg7
I244
sg8
S'Answer44.txt'
p1503
sa(dp1504
g4
F4.422442244224422
sg5
F2.4601962630255496
sg6
I31
sg7
I303
sg8
S'Answer45.txt'
p1505
sa(dp1506
g4
F4.390243902439025
sg5
F2.113195654801265
sg6
I13
sg7
I123
sg8
S'Answer46.txt'
p1507
sa(dp1508
g4
F4.9037037037037035
sg5
F2.8307153240023686
sg6
I13
sg7
I135
sg8
S'Answer47.txt'
p1509
sa(dp1510
g4
F4.319148936170213
sg5
F2.319134993405012
sg6
I55
sg7
I658
sg8
S'Answer48.txt'
p1511
sag1510
a(dp1512
g4
F4.3464285714285715
sg5
F3.1152828515077027
sg6
I20
sg7
I280
sg8
S'Answer49.txt'
p1513
sasS'Shikhar-Agarwal'
p1514
(lp1515
(dp1516
g4
F4.657657657657658
sg5
F2.5627107533477598
sg6
I4
sg7
I111
sg8
S'Answer1.txt'
p1517
sa(dp1518
g4
F5.213333333333333
sg5
F2.843909671952016
sg6
I6
sg7
I225
sg8
S'Answer2.txt'
p1519
sa(dp1520
g4
F4.775510204081633
sg5
F2.753060468071483
sg6
I10
sg7
I343
sg8
S'Answer3.txt'
p1521
sa(dp1522
g4
F4.67986798679868
sg5
F2.5601330376938107
sg6
I5
sg7
I303
sg8
S'Answer4.txt'
p1523
sa(dp1524
g4
F4.648936170212766
sg5
F2.6284347207096745
sg6
I2
sg7
I94
sg8
S'Answer5.txt'
p1525
sa(dp1526
g4
F4.467336683417085
sg5
F2.5779678105773383
sg6
I19
sg7
I398
sg8
S'Answer6.txt'
p1527
sa(dp1528
g4
F4.976744186046512
sg5
F2.882088810446923
sg6
I16
sg7
I430
sg8
S'Answer7.txt'
p1529
sa(dp1530
g4
F5.145669291338582
sg5
F3.352992690883768
sg6
I7
sg7
I254
sg8
S'Answer8.txt'
p1531
sa(dp1532
g4
F5.044585987261146
sg5
F2.8649961906680623
sg6
I5
sg7
I157
sg8
S'Answer9.txt'
p1533
sa(dp1534
g4
F5.06
sg5
F2.715952871461505
sg6
I12
sg7
I250
sg8
S'Answer10.txt'
p1535
sa(dp1536
g4
F4.973333333333334
sg5
F2.9798135661294145
sg6
I10
sg7
I375
sg8
S'Answer12.txt'
p1537
sa(dp1538
g4
F4.702325581395349
sg5
F2.6614813476265775
sg6
I3
sg7
I215
sg8
S'Answer13.txt'
p1539
sa(dp1540
g4
F4.75
sg5
F2.5913853009110355
sg6
I11
sg7
I360
sg8
S'Answer14.txt'
p1541
sa(dp1542
g4
F4.7540229885057474
sg5
F2.8311406497703193
sg6
I11
sg7
I435
sg8
S'Answer15.txt'
p1543
sa(dp1544
g4
F4.951754385964913
sg5
F2.851953238222372
sg6
I11
sg7
I228
sg8
S'Answer16.txt'
p1545
sa(dp1546
g4
F4.381877022653722
sg5
F2.287533762869555
sg6
I15
sg7
I309
sg8
S'Answer17.txt'
p1547
sa(dp1548
g4
F5.451048951048951
sg5
F3.3422568300301934
sg6
I10
sg7
I286
sg8
S'Answer18.txt'
p1549
sa(dp1550
g4
F4.7678916827853
sg5
F2.8462017861042312
sg6
I21
sg7
I517
sg8
S'Answer19.txt'
p1551
sa(dp1552
g4
F4.787671232876712
sg5
F2.7751561824729167
sg6
I6
sg7
I146
sg8
S'Answer21.txt'
p1553
sa(dp1554
g4
F4.797029702970297
sg5
F2.2544545758922028
sg6
I12
sg7
I202
sg8
S'Answer22.txt'
p1555
sa(dp1556
g4
F4.377358490566038
sg5
F2.0942546302659024
sg6
I6
sg7
I159
sg8
S'Answer23.txt'
p1557
sa(dp1558
g4
F4.736434108527132
sg5
F2.7161666820401007
sg6
I16
sg7
I387
sg8
S'Answer24.txt'
p1559
sa(dp1560
g4
F4.7655677655677655
sg5
F2.655422496268005
sg6
I12
sg7
I273
sg8
S'Answer25.txt'
p1561
sa(dp1562
g4
F4.953947368421052
sg5
F2.772844862016051
sg6
I18
sg7
I456
sg8
S'Answer26.txt'
p1563
sa(dp1564
g4
F4.794478527607362
sg5
F2.8987145772668237
sg6
I14
sg7
I326
sg8
S'Answer27.txt'
p1565
sa(dp1566
g4
F4.617449664429531
sg5
F2.72102752856797
sg6
I6
sg7
I149
sg8
S'Answer28.txt'
p1567
sa(dp1568
g4
F4.348837209302325
sg5
F2.408713482602961
sg6
I21
sg7
I301
sg8
S'Answer29.txt'
p1569
sa(dp1570
g4
F4.441860465116279
sg5
F2.5799073859471973
sg6
I7
sg7
I215
sg8
S'Answer30.txt'
p1571
sa(dp1572
g4
F5.098646034816247
sg5
F3.4043915921379697
sg6
I12
sg7
I517
sg8
S'Answer31.txt'
p1573
sa(dp1574
g4
F4.850202429149798
sg5
F2.8007065981464363
sg6
I22
sg7
I494
sg8
S'Answer32.txt'
p1575
sa(dp1576
g4
F4.523809523809524
sg5
F2.2320470064890388
sg6
I7
sg7
I273
sg8
S'Answer33.txt'
p1577
sa(dp1578
g4
F4.842281879194631
sg5
F2.5353786953032924
sg6
I9
sg7
I298
sg8
S'Answer34.txt'
p1579
sa(dp1580
g4
F4.1570247933884295
sg5
F2.374131470465508
sg6
I8
sg7
I121
sg8
S'Answer35.txt'
p1581
sa(dp1582
g4
F4.634538152610442
sg5
F2.775207920780795
sg6
I12
sg7
I249
sg8
S'Answer36.txt'
p1583
sa(dp1584
g4
F5.255102040816326
sg5
F3.5297893343214866
sg6
I19
sg7
I490
sg8
S'Answer37.txt'
p1585
sa(dp1586
g4
F4.690625
sg5
F2.697436210436681
sg6
I12
sg7
I320
sg8
S'Answer38.txt'
p1587
sa(dp1588
g4
F4.711743772241993
sg5
F2.493872380528235
sg6
I10
sg7
I281
sg8
S'Answer39.txt'
p1589
sa(dp1590
g4
F4.553299492385787
sg5
F2.429399411199567
sg6
I20
sg7
I394
sg8
S'Answer40.txt'
p1591
sa(dp1592
g4
F4.456375838926174
sg5
F2.5143433408996305
sg6
I17
sg7
I298
sg8
S'Answer41.txt'
p1593
sa(dp1594
g4
F4.818181818181818
sg5
F2.5683287908932075
sg6
I4
sg7
I143
sg8
S'Answer43.txt'
p1595
sa(dp1596
g4
F4.5675675675675675
sg5
F2.375524788651214
sg6
I14
sg7
I259
sg8
S'Answer44.txt'
p1597
sa(dp1598
g4
F4.785900783289817
sg5
F2.5906257317609676
sg6
I15
sg7
I383
sg8
S'Answer45.txt'
p1599
sa(dp1600
g4
F4.639455782312925
sg5
F2.687703362294851
sg6
I12
sg7
I294
sg8
S'Answer46.txt'
p1601
sa(dp1602
g4
F4.71078431372549
sg5
F2.779420410125918
sg6
I16
sg7
I408
sg8
S'Answer47.txt'
p1603
sa(dp1604
g4
F5.031578947368421
sg5
F2.973400079579104
sg6
I3
sg7
I190
sg8
S'Answer48.txt'
p1605
sa(dp1606
g4
F4.229411764705882
sg5
F2.0976919265433427
sg6
I16
sg7
I340
sg8
S'Answer49.txt'
p1607
sa(dp1608
g4
F4.883561643835616
sg5
F2.8223915681578027
sg6
I9
sg7
I146
sg8
S'Answer50.txt'
p1609
sasS'Raziman-T-V'
p1610
(lp1611
(dp1612
g4
F5.311774461028192
sg5
F5.200361385791413
sg6
I21
sg7
I603
sg8
S'Answer1.txt'
p1613
sa(dp1614
g4
F4.757894736842105
sg5
F3.014755954070556
sg6
I5
sg7
I95
sg8
S'Answer2.txt'
p1615
sa(dp1616
g4
F6.1082621082621085
sg5
F5.893616721704372
sg6
I15
sg7
I351
sg8
S'Answer3.txt'
p1617
sa(dp1618
g4
F5.813880126182966
sg5
F5.192818058874231
sg6
I9
sg7
I317
sg8
S'Answer4.txt'
p1619
sa(dp1620
g4
F4.62962962962963
sg5
F2.6799757896660514
sg6
I16
sg7
I432
sg8
S'Answer5.txt'
p1621
sa(dp1622
g4
F4.124076809453471
sg5
F2.6364050396787553
sg6
I30
sg7
I677
sg8
S'Answer6.txt'
p1623
sa(dp1624
g4
F5.40251572327044
sg5
F4.595758910174097
sg6
I5
sg7
I159
sg8
S'Answer8.txt'
p1625
sa(dp1626
g4
F7.201298701298701
sg5
F9.266879909033024
sg6
I3
sg7
I154
sg8
S'Answer9.txt'
p1627
sa(dp1628
g4
F6.309375
sg5
F6.844562594452259
sg6
I21
sg7
I640
sg8
S'Answer10.txt'
p1629
sa(dp1630
g4
F4.970674486803519
sg5
F4.64193139878757
sg6
I10
sg7
I341
sg8
S'Answer11.txt'
p1631
sa(dp1632
g4
F4.847161572052402
sg5
F3.190905919894068
sg6
I4
sg7
I229
sg8
S'Answer14.txt'
p1633
sa(dp1634
g4
F5.044260027662517
sg5
F2.801052874342336
sg6
I34
sg7
I723
sg8
S'Answer15.txt'
p1635
sa(dp1636
g4
F4.825892857142857
sg5
F2.652668654114269
sg6
I7
sg7
I224
sg8
S'Answer16.txt'
p1637
sa(dp1638
g4
F5.390070921985815
sg5
F3.397481440245706
sg6
I7
sg7
I141
sg8
S'Answer17.txt'
p1639
sa(dp1640
g4
F4.445945945945946
sg5
F3.3172028753148473
sg6
I8
sg7
I222
sg8
S'Answer19.txt'
p1641
sa(dp1642
g4
F5.2893617021276595
sg5
F4.02773544117103
sg6
I5
sg7
I235
sg8
S'Answer20.txt'
p1643
sa(dp1644
g4
F4.866028708133971
sg5
F3.060982113892245
sg6
I22
sg7
I627
sg8
S'Answer21.txt'
p1645
sa(dp1646
g4
F4.540404040404041
sg5
F3.1488147262399786
sg6
I6
sg7
I198
sg8
S'Answer22.txt'
p1647
sa(dp1648
g4
F5.203252032520325
sg5
F3.2333610331396554
sg6
I17
sg7
I492
sg8
S'Answer23.txt'
p1649
sa(dp1650
g4
F5.505263157894737
sg5
F5.047925439875015
sg6
I8
sg7
I190
sg8
S'Answer24.txt'
p1651
sa(dp1652
g4
F5.308411214953271
sg5
F3.252349876435918
sg6
I13
sg7
I214
sg8
S'Answer26.txt'
p1653
sa(dp1654
g4
F5.655063291139241
sg5
F3.4884084265499418
sg6
I14
sg7
I316
sg8
S'Answer28.txt'
p1655
sa(dp1656
g4
F5.4416058394160585
sg5
F3.023970955711678
sg6
I16
sg7
I274
sg8
S'Answer29.txt'
p1657
sa(dp1658
g4
F4.775206611570248
sg5
F3.55904808964688
sg6
I20
sg7
I605
sg8
S'Answer31.txt'
p1659
sa(dp1660
g4
F4.46829268292683
sg5
F3.4379828902077296
sg6
I7
sg7
I205
sg8
S'Answer32.txt'
p1661
sa(dp1662
g4
F8.545454545454545
sg5
F15.12140948434995
sg6
I3
sg7
I132
sg8
S'Answer33.txt'
p1663
sa(dp1664
g4
F4.456953642384106
sg5
F2.362048441270962
sg6
I14
sg7
I302
sg8
S'Answer34.txt'
p1665
sa(dp1666
g4
F5.0578512396694215
sg5
F2.862691101307774
sg6
I9
sg7
I242
sg8
S'Answer36.txt'
p1667
sa(dp1668
g4
F4.2727272727272725
sg5
F2.5468070000133123
sg6
I6
sg7
I132
sg8
S'Answer37.txt'
p1669
sa(dp1670
g4
F4.683397683397684
sg5
F2.63700910638854
sg6
I20
sg7
I518
sg8
S'Answer38.txt'
p1671
sa(dp1672
g4
F4.63921568627451
sg5
F2.764486154528084
sg6
I26
sg7
I510
sg8
S'Answer40.txt'
p1673
sag1672
a(dp1674
g4
F5.118421052631579
sg5
F3.513010050112065
sg6
I6
sg7
I152
sg8
S'Answer41.txt'
p1675
sa(dp1676
g4
F4.583061889250814
sg5
F2.4750428034492398
sg6
I15
sg7
I307
sg8
S'Answer42.txt'
p1677
sa(dp1678
g4
F4.694136291600634
sg5
F2.761510503392477
sg6
I28
sg7
I631
sg8
S'Answer43.txt'
p1679
sa(dp1680
g4
F4.803439803439804
sg5
F2.920854097546258
sg6
I31
sg7
I814
sg8
S'Answer44.txt'
p1681
sa(dp1682
g4
F5.994791666666667
sg5
F4.428244333058408
sg6
I3
sg7
I192
sg8
S'Answer45.txt'
p1683
sa(dp1684
g4
F4.928895612708018
sg5
F2.598049452732973
sg6
I23
sg7
I661
sg8
S'Answer46.txt'
p1685
sa(dp1686
g4
F5.30635838150289
sg5
F3.030445708057113
sg6
I8
sg7
I173
sg8
S'Answer47.txt'
p1687
sa(dp1688
g4
F5.044510385756676
sg5
F3.2594679911304
sg6
I13
sg7
I337
sg8
S'Answer48.txt'
p1689
sa(dp1690
g4
F4.684950773558368
sg5
F2.6527667729609865
sg6
I31
sg7
I711
sg8
S'Answer49.txt'
p1691
sa(dp1692
g4
F4.9600840336134455
sg5
F2.9184438111179474
sg6
I20
sg7
I476
sg8
S'Answer50.txt'
p1693
sag1692
asS'Jimmy-Wales'
p1694
(lp1695
(dp1696
g4
F5.4869281045751634
sg5
F3.2551857634101595
sg6
I11
sg7
I306
sg8
S'Answer1.txt'
p1697
sa(dp1698
g4
F4.863636363636363
sg5
F3.042060523954932
sg6
I3
sg7
I88
sg8
S'Answer2.txt'
p1699
sa(dp1700
g4
F4.529411764705882
sg5
F2.6035642325094983
sg6
I4
sg7
I136
sg8
S'Answer4.txt'
p1701
sa(dp1702
g4
F4.983606557377049
sg5
F2.9559154543172834
sg6
I3
sg7
I122
sg8
S'Answer5.txt'
p1703
sa(dp1704
g4
F5.061224489795919
sg5
F2.7731082043204944
sg6
I4
sg7
I98
sg8
S'Answer6.txt'
p1705
sa(dp1706
g4
F4.712418300653595
sg5
F2.545464254211598
sg6
I6
sg7
I153
sg8
S'Answer7.txt'
p1707
sa(dp1708
g4
F4.584507042253521
sg5
F2.929315061379306
sg6
I5
sg7
I142
sg8
S'Answer8.txt'
p1709
sa(dp1710
g4
F4.242290748898679
sg5
F2.6645610335228134
sg6
I7
sg7
I227
sg8
S'Answer10.txt'
p1711
sa(dp1712
g4
F4.83125
sg5
F3.1129204033351066
sg6
I3
sg7
I160
sg8
S'Answer12.txt'
p1713
sa(dp1714
g4
F4.303370786516854
sg5
F2.6895741042992958
sg6
I8
sg7
I178
sg8
S'Answer14.txt'
p1715
sa(dp1716
g4
F5.571428571428571
sg5
F3.42044491458774
sg6
I4
sg7
I77
sg8
S'Answer16.txt'
p1717
sa(dp1718
g4
F3.8870967741935485
sg5
F2.2690401460051657
sg6
I5
sg7
I124
sg8
S'Answer18.txt'
p1719
sa(dp1720
g4
F4.851612903225806
sg5
F3.131100081620488
sg6
I3
sg7
I155
sg8
S'Answer21.txt'
p1721
sa(dp1722
g4
F4.3028571428571425
sg5
F2.2180410551766108
sg6
I5
sg7
I175
sg8
S'Answer22.txt'
p1723
sa(dp1724
g4
F4.956521739130435
sg5
F3.099484681847235
sg6
I3
sg7
I115
sg8
S'Answer24.txt'
p1725
sa(dp1726
g4
F4.378531073446328
sg5
F2.680372705847972
sg6
I15
sg7
I177
sg8
S'Answer29.txt'
p1727
sa(dp1728
g4
F4.468553459119497
sg5
F2.680693573183188
sg6
I10
sg7
I318
sg8
S'Answer33.txt'
p1729
sa(dp1730
g4
F5.031645569620253
sg5
F2.6823871997847326
sg6
I6
sg7
I158
sg8
S'Answer36.txt'
p1731
sa(dp1732
g4
F4.6440677966101696
sg5
F2.558884236884601
sg6
I8
sg7
I295
sg8
S'Answer38.txt'
p1733
sa(dp1734
g4
F4.427083333333333
sg5
F2.498936405697878
sg6
I3
sg7
I96
sg8
S'Answer39.txt'
p1735
sa(dp1736
g4
F4.615062761506276
sg5
F2.7796223322366145
sg6
I10
sg7
I239
sg8
S'Answer46.txt'
p1737
sa(dp1738
g4
F4.694444444444445
sg5
F2.7061600967303847
sg6
I4
sg7
I144
sg8
S'Answer49.txt'
p1739
sasS'Giordon-Stark'
p1740
(lp1741
(dp1742
g4
F4.964285714285714
sg5
F4.0398209194498325
sg6
I2
sg7
I84
sg8
S'Answer3.txt'
p1743
sa(dp1744
g4
F5.208955223880597
sg5
F3.217198713968295
sg6
I14
sg7
I335
sg8
S'Answer5.txt'
p1745
sa(dp1746
g4
F5.0843373493975905
sg5
F3.0807270536949662
sg6
I8
sg7
I249
sg8
S'Answer9.txt'
p1747
sa(dp1748
g4
F6.684684684684685
sg5
F6.758354165527452
sg6
I4
sg7
I111
sg8
S'Answer16.txt'
p1749
sa(dp1750
g4
F8.117647058823529
sg5
F8.974685660175622
sg6
I1
sg7
I68
sg8
S'Answer20.txt'
p1751
sa(dp1752
g4
F8.60483870967742
sg5
F9.323763040320683
sg6
I3
sg7
I124
sg8
S'Answer24.txt'
p1753
sa(dp1754
g4
F7.291666666666667
sg5
F9.55021451184329
sg6
I3
sg7
I72
sg8
S'Answer25.txt'
p1755
sa(dp1756
g4
F4.545023696682464
sg5
F2.5558429248117944
sg6
I10
sg7
I211
sg8
S'Answer27.txt'
p1757
sa(dp1758
g4
F5.681620839363242
sg5
F4.530321799532867
sg6
I27
sg7
I691
sg8
S'Answer29.txt'
p1759
sa(dp1760
g4
F5.8661670235546035
sg5
F7.79819550847355
sg6
I36
sg7
I934
sg8
S'Answer38.txt'
p1761
sag1760
a(dp1762
g4
F4.849162011173185
sg5
F2.893768467901228
sg6
I6
sg7
I179
sg8
S'Answer39.txt'
p1763
sa(dp1764
g4
F4.955259975816203
sg5
F3.1838742378050346
sg6
I31
sg7
I827
sg8
S'Answer40.txt'
p1765
sag1764
a(dp1766
g4
F6.469026548672566
sg5
F6.327452193796636
sg6
I2
sg7
I113
sg8
S'Answer43.txt'
p1767
sa(dp1768
g4
F4.703213610586011
sg5
F2.7430629248285547
sg6
I20
sg7
I529
sg8
S'Answer48.txt'
p1769
sasS'Steven-Grimm'
p1770
(lp1771
(dp1772
g4
F5.059322033898305
sg5
F3.073374926472049
sg6
I4
sg7
I236
sg8
S'Answer1.txt'
p1773
sa(dp1774
g4
F4.625974025974026
sg5
F2.791517885169548
sg6
I10
sg7
I385
sg8
S'Answer2.txt'
p1775
sa(dp1776
g4
F4.9140625
sg5
F3.117559501612399
sg6
I5
sg7
I128
sg8
S'Answer3.txt'
p1777
sa(dp1778
g4
F4.95609756097561
sg5
F2.8734316002323
sg6
I5
sg7
I205
sg8
S'Answer4.txt'
p1779
sa(dp1780
g4
F4.526881720430108
sg5
F2.5969021985859806
sg6
I2
sg7
I93
sg8
S'Answer5.txt'
p1781
sa(dp1782
g4
F4.7272727272727275
sg5
F2.6643535816161705
sg6
I5
sg7
I231
sg8
S'Answer6.txt'
p1783
sa(dp1784
g4
F4.330275229357798
sg5
F2.373612760946423
sg6
I4
sg7
I109
sg8
S'Answer7.txt'
p1785
sa(dp1786
g4
F4.820224719101123
sg5
F2.4244160550384692
sg6
I3
sg7
I89
sg8
S'Answer8.txt'
p1787
sa(dp1788
g4
F5.035398230088496
sg5
F3.122652615115414
sg6
I3
sg7
I113
sg8
S'Answer9.txt'
p1789
sa(dp1790
g4
F5.47027027027027
sg5
F3.446962224278448
sg6
I2
sg7
I185
sg8
S'Answer10.txt'
p1791
sa(dp1792
g4
F4.734246575342466
sg5
F2.710316120574721
sg6
I14
sg7
I365
sg8
S'Answer11.txt'
p1793
sa(dp1794
g4
F4.942913385826771
sg5
F2.926038576027921
sg6
I10
sg7
I508
sg8
S'Answer12.txt'
p1795
sa(dp1796
g4
F5.082508250825082
sg5
F3.002164946958077
sg6
I11
sg7
I303
sg8
S'Answer13.txt'
p1797
sa(dp1798
g4
F4.710280373831775
sg5
F2.7963349816304546
sg6
I10
sg7
I321
sg8
S'Answer15.txt'
p1799
sa(dp1800
g4
F4.833333333333333
sg5
F2.491799415580111
sg6
I4
sg7
I114
sg8
S'Answer16.txt'
p1801
sa(dp1802
g4
F4.8599562363238515
sg5
F2.7087011102866474
sg6
I14
sg7
I457
sg8
S'Answer17.txt'
p1803
sa(dp1804
g4
F5.272058823529412
sg5
F3.3726122528841795
sg6
I4
sg7
I136
sg8
S'Answer19.txt'
p1805
sa(dp1806
g4
F4.59079283887468
sg5
F2.6464891834286846
sg6
I16
sg7
I391
sg8
S'Answer20.txt'
p1807
sa(dp1808
g4
F4.709219858156028
sg5
F2.7172655401142114
sg6
I2
sg7
I141
sg8
S'Answer21.txt'
p1809
sa(dp1810
g4
F4.796680497925311
sg5
F2.735229927600162
sg6
I4
sg7
I241
sg8
S'Answer22.txt'
p1811
sa(dp1812
g4
F4.762135922330097
sg5
F2.665260748090426
sg6
I5
sg7
I206
sg8
S'Answer23.txt'
p1813
sa(dp1814
g4
F5.414893617021277
sg5
F2.6793519956030845
sg6
I4
sg7
I94
sg8
S'Answer24.txt'
p1815
sa(dp1816
g4
F4.754152823920266
sg5
F2.4027996606465134
sg6
I9
sg7
I301
sg8
S'Answer25.txt'
p1817
sa(dp1818
g4
F4.79874213836478
sg5
F2.841250221346202
sg6
I8
sg7
I159
sg8
S'Answer26.txt'
p1819
sa(dp1820
g4
F5.072992700729927
sg5
F2.676295065443827
sg6
I6
sg7
I137
sg8
S'Answer27.txt'
p1821
sa(dp1822
g4
F4.5548245614035086
sg5
F2.607609220419016
sg6
I10
sg7
I456
sg8
S'Answer28.txt'
p1823
sa(dp1824
g4
F5.320987654320987
sg5
F3.1498663914201512
sg6
I3
sg7
I81
sg8
S'Answer29.txt'
p1825
sa(dp1826
g4
F4.84070796460177
sg5
F2.792424555295311
sg6
I8
sg7
I339
sg8
S'Answer31.txt'
p1827
sa(dp1828
g4
F4.685897435897436
sg5
F2.677792065948166
sg6
I8
sg7
I312
sg8
S'Answer32.txt'
p1829
sa(dp1830
g4
F4.746177370030581
sg5
F2.978995131416753
sg6
I9
sg7
I327
sg8
S'Answer33.txt'
p1831
sa(dp1832
g4
F4.788571428571428
sg5
F2.589183150678046
sg6
I13
sg7
I350
sg8
S'Answer34.txt'
p1833
sa(dp1834
g4
F5.20952380952381
sg5
F2.8972737204720342
sg6
I5
sg7
I105
sg8
S'Answer35.txt'
p1835
sa(dp1836
g4
F4.74
sg5
F2.7590578101953582
sg6
I3
sg7
I100
sg8
S'Answer36.txt'
p1837
sa(dp1838
g4
F4.723404255319149
sg5
F2.442549484762552
sg6
I2
sg7
I94
sg8
S'Answer37.txt'
p1839
sa(dp1840
g4
F4.578544061302682
sg5
F2.881862854548497
sg6
I5
sg7
I261
sg8
S'Answer38.txt'
p1841
sa(dp1842
g4
F5.214545454545455
sg5
F3.137075545027027
sg6
I8
sg7
I275
sg8
S'Answer39.txt'
p1843
sa(dp1844
g4
F4.722063037249284
sg5
F2.860681043110235
sg6
I10
sg7
I349
sg8
S'Answer41.txt'
p1845
sa(dp1846
g4
F4.991596638655462
sg5
F3.224110321733949
sg6
I4
sg7
I119
sg8
S'Answer42.txt'
p1847
sa(dp1848
g4
F5.061946902654867
sg5
F2.783590302223369
sg6
I6
sg7
I226
sg8
S'Answer44.txt'
p1849
sa(dp1850
g4
F4.834090909090909
sg5
F2.7654066922522778
sg6
I14
sg7
I440
sg8
S'Answer45.txt'
p1851
sa(dp1852
g4
F4.678030303030303
sg5
F2.6036342430934893
sg6
I11
sg7
I528
sg8
S'Answer49.txt'
p1853
sa(dp1854
g4
F5.437956204379562
sg5
F5.327057107703924
sg6
I9
sg7
I137
sg8
S'Answer50.txt'
p1855
sasS'Andrew-Watts'
p1856
(lp1857
(dp1858
g4
F5.904347826086957
sg5
F3.456497128706482
sg6
I11
sg7
I230
sg8
S'Answer1.txt'
p1859
sa(dp1860
g4
F5.337643678160919
sg5
F3.2786433922774405
sg6
I28
sg7
I696
sg8
S'Answer3.txt'
p1861
sag1860
a(dp1862
g4
F5.5264367816091955
sg5
F3.2724717281468876
sg6
I13
sg7
I435
sg8
S'Answer4.txt'
p1863
sag1862
a(dp1864
g4
F5.23758865248227
sg5
F3.044633437207744
sg6
I22
sg7
I564
sg8
S'Answer5.txt'
p1865
sag1864
a(dp1866
g4
F5.3477633477633475
sg5
F3.1202890108282086
sg6
I25
sg7
I693
sg8
S'Answer6.txt'
p1867
sag1866
a(dp1868
g4
F5.131243878550441
sg5
F2.930874074507671
sg6
I39
sg7
I1021
sg8
S'Answer7.txt'
p1869
sag1868
a(dp1870
g4
F5.291172595520422
sg5
F3.0474185832593115
sg6
I19
sg7
I759
sg8
S'Answer8.txt'
p1871
sa(dp1872
g4
F5.383219954648526
sg5
F3.070684970031939
sg6
I14
sg7
I441
sg8
S'Answer9.txt'
p1873
sag1872
a(dp1874
g4
F5.35702746365105
sg5
F3.0078241886472026
sg6
I17
sg7
I619
sg8
S'Answer10.txt'
p1875
sa(dp1876
g4
F5.4393063583815024
sg5
F3.151853034889697
sg6
I20
sg7
I519
sg8
S'Answer11.txt'
p1877
sa(dp1878
g4
F4.776785714285714
sg5
F3.1116423701633713
sg6
I8
sg7
I224
sg8
S'Answer12.txt'
p1879
sa(dp1880
g4
F5.192534381139489
sg5
F2.8797551026390207
sg6
I15
sg7
I509
sg8
S'Answer13.txt'
p1881
sag1880
a(dp1882
g4
F5.139588100686499
sg5
F3.042974098397776
sg6
I17
sg7
I437
sg8
S'Answer14.txt'
p1883
sag1882
a(dp1884
g4
F5.253703703703704
sg5
F3.1175259043126387
sg6
I23
sg7
I540
sg8
S'Answer15.txt'
p1885
sag1884
a(dp1886
g4
F5.127023661270236
sg5
F2.9891967347419364
sg6
I24
sg7
I803
sg8
S'Answer16.txt'
p1887
sa(dp1888
g4
F5.793296089385475
sg5
F5.062377361950526
sg6
I2
sg7
I179
sg8
S'Answer17.txt'
p1889
sa(dp1890
g4
F5.368501529051988
sg5
F2.9985192909286185
sg6
I29
sg7
I654
sg8
S'Answer18.txt'
p1891
sa(dp1892
g4
F4.969018932874355
sg5
F2.963182669563989
sg6
I17
sg7
I581
sg8
S'Answer19.txt'
p1893
sa(dp1894
g4
F5.206175298804781
sg5
F3.0311006956941595
sg6
I45
sg7
I1004
sg8
S'Answer20.txt'
p1895
sag1894
a(dp1896
g4
F5.2559241706161135
sg5
F3.1743791383010915
sg6
I15
sg7
I422
sg8
S'Answer21.txt'
p1897
sag1896
a(dp1898
g4
F5.280788177339901
sg5
F3.1375121197536107
sg6
I30
sg7
I609
sg8
S'Answer22.txt'
p1899
sag1898
a(dp1900
g4
F5.259625962596259
sg5
F3.171782956133993
sg6
I38
sg7
I909
sg8
S'Answer23.txt'
p1901
sag1900
a(dp1902
g4
F5.5212765957446805
sg5
F3.5392291605877095
sg6
I15
sg7
I376
sg8
S'Answer24.txt'
p1903
sa(dp1904
g4
F4.939705882352941
sg5
F2.9952236342846152
sg6
I26
sg7
I680
sg8
S'Answer25.txt'
p1905
sag1904
a(dp1906
g4
F5.007347538574577
sg5
F3.12228445123541
sg6
I52
sg7
I1361
sg8
S'Answer26.txt'
p1907
sag1906
a(dp1908
g4
F5.513556618819777
sg5
F3.1299945143518175
sg6
I24
sg7
I627
sg8
S'Answer27.txt'
p1909
sag1908
a(dp1910
g4
F5.228571428571429
sg5
F3.047581845011024
sg6
I24
sg7
I700
sg8
S'Answer28.txt'
p1911
sag1910
a(dp1912
g4
F5.308351177730192
sg5
F3.203851212506224
sg6
I15
sg7
I467
sg8
S'Answer29.txt'
p1913
sag1912
a(dp1914
g4
F5.415770609318996
sg5
F2.994481548893409
sg6
I8
sg7
I279
sg8
S'Answer30.txt'
p1915
sa(dp1916
g4
F5.593155893536122
sg5
F3.32204737858796
sg6
I18
sg7
I526
sg8
S'Answer31.txt'
p1917
sag1916
a(dp1918
g4
F5.429268292682927
sg5
F3.1562747339722703
sg6
I10
sg7
I205
sg8
S'Answer32.txt'
p1919
sa(dp1920
g4
F5.339285714285714
sg5
F3.3741495527142296
sg6
I6
sg7
I112
sg8
S'Answer33.txt'
p1921
sa(dp1922
g4
F6.040871934604905
sg5
F3.7737032603201284
sg6
I14
sg7
I367
sg8
S'Answer34.txt'
p1923
sag1922
a(dp1924
g4
F5.893919793014231
sg5
F3.7404992062300217
sg6
I26
sg7
I773
sg8
S'Answer35.txt'
p1925
sag1924
a(dp1926
g4
F6.012295081967213
sg5
F5.049331685510833
sg6
I27
sg7
I488
sg8
S'Answer36.txt'
p1927
sa(dp1928
g4
F6.19620253164557
sg5
F6.4860696498946675
sg6
I9
sg7
I158
sg8
S'Answer39.txt'
p1929
sa(dp1930
g4
F5.412078152753108
sg5
F3.4120249865717205
sg6
I23
sg7
I563
sg8
S'Answer40.txt'
p1931
sag1930
a(dp1932
g4
F4.60427807486631
sg5
F2.95665349337619
sg6
I15
sg7
I187
sg8
S'Answer41.txt'
p1933
sa(dp1934
g4
F4.444043321299639
sg5
F2.577592047525409
sg6
I4
sg7
I277
sg8
S'Answer42.txt'
p1935
sa(dp1936
g4
F4.2562277580071175
sg5
F2.4823588264278187
sg6
I25
sg7
I562
sg8
S'Answer43.txt'
p1937
sag1936
a(dp1938
g4
F5.837837837837838
sg5
F3.909541436533662
sg6
I7
sg7
I148
sg8
S'Answer44.txt'
p1939
sa(dp1940
g4
F4.87593984962406
sg5
F2.676060688477003
sg6
I8
sg7
I266
sg8
S'Answer45.txt'
p1941
sa(dp1942
g4
F5.233333333333333
sg5
F2.9451870881366755
sg6
I11
sg7
I210
sg8
S'Answer46.txt'
p1943
sa(dp1944
g4
F5.989399293286219
sg5
F4.9936242734845955
sg6
I11
sg7
I283
sg8
S'Answer47.txt'
p1945
sa(dp1946
g4
F6.907801418439717
sg5
F8.629407669505644
sg6
I11
sg7
I141
sg8
S'Answer48.txt'
p1947
sa(dp1948
g4
F5.9818181818181815
sg5
F6.069768831175681
sg6
I10
sg7
I165
sg8
S'Answer49.txt'
p1949
sa(dp1950
g4
F5.128349788434415
sg5
F2.818766490230997
sg6
I33
sg7
I709
sg8
S'Answer50.txt'
p1951
sasS'Robert-Frost-1'
p1952
(lp1953
(dp1954
g4
F5.056338028169014
sg5
F2.4774323597233816
sg6
I1
sg7
I142
sg8
S'Answer3.txt'
p1955
sa(dp1956
g4
F4.659722222222222
sg5
F2.5904825656312576
sg6
I9
sg7
I144
sg8
S'Answer7.txt'
p1957
sa(dp1958
g4
F4.482142857142857
sg5
F2.580774187751277
sg6
I9
sg7
I112
sg8
S'Answer8.txt'
p1959
sa(dp1960
g4
F4.463855421686747
sg5
F2.48766006632802
sg6
I8
sg7
I166
sg8
S'Answer10.txt'
p1961
sa(dp1962
g4
F4.82258064516129
sg5
F2.2967311521882228
sg6
I10
sg7
I124
sg8
S'Answer16.txt'
p1963
sa(dp1964
g4
F5.117647058823529
sg5
F4.6868487629123425
sg6
I6
sg7
I102
sg8
S'Answer18.txt'
p1965
sa(dp1966
g4
F4.734246575342466
sg5
F3.2271204849109902
sg6
I18
sg7
I365
sg8
S'Answer19.txt'
p1967
sa(dp1968
g4
F4.848484848484849
sg5
F2.524080536116218
sg6
I10
sg7
I99
sg8
S'Answer20.txt'
p1969
sa(dp1970
g4
F5.311320754716981
sg5
F3.004283757755984
sg6
I6
sg7
I106
sg8
S'Answer24.txt'
p1971
sa(dp1972
g4
F4.275167785234899
sg5
F2.302199299831231
sg6
I4
sg7
I149
sg8
S'Answer25.txt'
p1973
sa(dp1974
g4
F5.518151815181518
sg5
F3.218987687570071
sg6
I1
sg7
I303
sg8
S'Answer26.txt'
p1975
sa(dp1976
g4
F4.544554455445544
sg5
F2.4757227266622235
sg6
I5
sg7
I101
sg8
S'Answer27.txt'
p1977
sa(dp1978
g4
F4.828571428571428
sg5
F2.9343844746212073
sg6
I11
sg7
I175
sg8
S'Answer28.txt'
p1979
sa(dp1980
g4
F4.444099378881988
sg5
F2.516710480428322
sg6
I16
sg7
I322
sg8
S'Answer30.txt'
p1981
sa(dp1982
g4
F4.266666666666667
sg5
F2.1974732965132673
sg6
I6
sg7
I120
sg8
S'Answer32.txt'
p1983
sa(dp1984
g4
F5.108108108108108
sg5
F2.6418371690837197
sg6
I5
sg7
I111
sg8
S'Answer33.txt'
p1985
sa(dp1986
g4
F5.473053892215569
sg5
F3.207055043336152
sg6
I3
sg7
I167
sg8
S'Answer34.txt'
p1987
sa(dp1988
g4
F4.596153846153846
sg5
F2.65105351787019
sg6
I48
sg7
I884
sg8
S'Answer35.txt'
p1989
sa(dp1990
g4
F4.641456582633054
sg5
F2.6420996035997217
sg6
I24
sg7
I357
sg8
S'Answer39.txt'
p1991
sa(dp1992
g4
F4.627659574468085
sg5
F2.5410838806237335
sg6
I7
sg7
I188
sg8
S'Answer41.txt'
p1993
sa(dp1994
g4
F4.150375939849624
sg5
F2.299055839558072
sg6
I6
sg7
I133
sg8
S'Answer43.txt'
p1995
sa(dp1996
g4
F4.378531073446328
sg5
F2.6719281618602295
sg6
I8
sg7
I177
sg8
S'Answer45.txt'
p1997
sa(dp1998
g4
F4.673076923076923
sg5
F3.06011031630054
sg6
I9
sg7
I208
sg8
S'Answer46.txt'
p1999
sa(dp2000
g4
F4.155038759689923
sg5
F2.1220496615158524
sg6
I4
sg7
I129
sg8
S'Answer47.txt'
p2001
sa(dp2002
g4
F4.924812030075188
sg5
F2.792643558955218
sg6
I10
sg7
I266
sg8
S'Answer48.txt'
p2003
sa(dp2004
g4
F4.683229813664596
sg5
F2.557226662195606
sg6
I15
sg7
I483
sg8
S'Answer49.txt'
p2005
sasS'Thomas-Wier'
p2006
(lp2007
(dp2008
g4
F4.948529411764706
sg5
F2.8960415502716206
sg6
I6
sg7
I136
sg8
S'Answer1.txt'
p2009
sa(dp2010
g4
F5.362573099415204
sg5
F3.1358337054573244
sg6
I5
sg7
I171
sg8
S'Answer2.txt'
p2011
sa(dp2012
g4
F5.283387622149837
sg5
F2.912594954833525
sg6
I8
sg7
I307
sg8
S'Answer3.txt'
p2013
sa(dp2014
g4
F5.445945945945946
sg5
F2.7045601725248956
sg6
I4
sg7
I148
sg8
S'Answer4.txt'
p2015
sa(dp2016
g4
F5.1675
sg5
F2.8547230601233506
sg6
I9
sg7
I400
sg8
S'Answer5.txt'
p2017
sa(dp2018
g4
F5.203389830508475
sg5
F2.938809057856712
sg6
I6
sg7
I236
sg8
S'Answer6.txt'
p2019
sa(dp2020
g4
F5.203791469194313
sg5
F3.026139648097067
sg6
I11
sg7
I422
sg8
S'Answer7.txt'
p2021
sag2020
a(dp2022
g4
F5.319587628865979
sg5
F2.9614234239516457
sg6
I16
sg7
I485
sg8
S'Answer8.txt'
p2023
sa(dp2024
g4
F5.255079006772009
sg5
F3.710206796739311
sg6
I12
sg7
I443
sg8
S'Answer9.txt'
p2025
sa(dp2026
g4
F5.353711790393013
sg5
F3.536675803952453
sg6
I8
sg7
I229
sg8
S'Answer10.txt'
p2027
sa(dp2028
g4
F5.327272727272727
sg5
F3.2894019652903754
sg6
I14
sg7
I660
sg8
S'Answer11.txt'
p2029
sa(dp2030
g4
F5.244897959183674
sg5
F3.048567940228049
sg6
I7
sg7
I294
sg8
S'Answer12.txt'
p2031
sa(dp2032
g4
F5.193236714975845
sg5
F3.115286602976397
sg6
I14
sg7
I621
sg8
S'Answer13.txt'
p2033
sa(dp2034
g4
F5.218503937007874
sg5
F3.07285103931626
sg6
I12
sg7
I508
sg8
S'Answer14.txt'
p2035
sag2034
a(dp2036
g4
F4.873873873873874
sg5
F2.511656131844633
sg6
I4
sg7
I111
sg8
S'Answer15.txt'
p2037
sa(dp2038
g4
F4.909871244635193
sg5
F2.9640965274034827
sg6
I9
sg7
I233
sg8
S'Answer16.txt'
p2039
sa(dp2040
g4
F5.885245901639344
sg5
F3.459832084695222
sg6
I6
sg7
I183
sg8
S'Answer17.txt'
p2041
sa(dp2042
g4
F4.726591760299626
sg5
F2.690697804666473
sg6
I8
sg7
I267
sg8
S'Answer18.txt'
p2043
sa(dp2044
g4
F5.444043321299639
sg5
F3.1727532893287482
sg6
I9
sg7
I277
sg8
S'Answer19.txt'
p2045
sa(dp2046
g4
F5.677282377919321
sg5
F3.5437654717213136
sg6
I12
sg7
I471
sg8
S'Answer20.txt'
p2047
sag2046
a(dp2048
g4
F5.291457286432161
sg5
F3.1496154965033036
sg6
I8
sg7
I398
sg8
S'Answer21.txt'
p2049
sag2048
a(dp2050
g4
F5.165997322623829
sg5
F3.0391061912608315
sg6
I24
sg7
I747
sg8
S'Answer22.txt'
p2051
sa(dp2052
g4
F5.333333333333333
sg5
F3.2222882804696606
sg6
I18
sg7
I435
sg8
S'Answer23.txt'
p2053
sa(dp2054
g4
F5.444444444444445
sg5
F3.5931115146151114
sg6
I28
sg7
I639
sg8
S'Answer25.txt'
p2055
sa(dp2056
g4
F4.557471264367816
sg5
F2.4411760960514246
sg6
I6
sg7
I174
sg8
S'Answer26.txt'
p2057
sa(dp2058
g4
F5.116357504215852
sg5
F2.972320688206409
sg6
I16
sg7
I593
sg8
S'Answer27.txt'
p2059
sa(dp2060
g4
F5.037790697674419
sg5
F2.913734876912569
sg6
I12
sg7
I344
sg8
S'Answer28.txt'
p2061
sa(dp2062
g4
F5.123123123123123
sg5
F2.9131327120565427
sg6
I8
sg7
I333
sg8
S'Answer29.txt'
p2063
sa(dp2064
g4
F4.870535714285714
sg5
F2.7150749263818375
sg6
I13
sg7
I448
sg8
S'Answer30.txt'
p2065
sa(dp2066
g4
F5.173120728929385
sg5
F2.806940156129843
sg6
I12
sg7
I439
sg8
S'Answer31.txt'
p2067
sag2066
a(dp2068
g4
F5.16017316017316
sg5
F2.9151593580059507
sg6
I6
sg7
I231
sg8
S'Answer32.txt'
p2069
sa(dp2070
g4
F4.554878048780488
sg5
F2.588089625951383
sg6
I3
sg7
I164
sg8
S'Answer33.txt'
p2071
sa(dp2072
g4
F5.12035010940919
sg5
F2.885252907687365
sg6
I12
sg7
I457
sg8
S'Answer34.txt'
p2073
sa(dp2074
g4
F5.30106100795756
sg5
F2.9017188611344054
sg6
I17
sg7
I754
sg8
S'Answer35.txt'
p2075
sa(dp2076
g4
F5.1163227016885555
sg5
F2.687190094700571
sg6
I17
sg7
I533
sg8
S'Answer36.txt'
p2077
sag2076
a(dp2078
g4
F5.169580419580419
sg5
F3.1089063069431444
sg6
I18
sg7
I572
sg8
S'Answer37.txt'
p2079
sag2078
a(dp2080
g4
F5.242424242424242
sg5
F2.9601992007690683
sg6
I10
sg7
I297
sg8
S'Answer38.txt'
p2081
sa(dp2082
g4
F5.319148936170213
sg5
F3.130538550491897
sg6
I5
sg7
I235
sg8
S'Answer39.txt'
p2083
sa(dp2084
g4
F5.1824324324324325
sg5
F3.641051901324303
sg6
I8
sg7
I296
sg8
S'Answer41.txt'
p2085
sa(dp2086
g4
F4.8125
sg5
F2.97399587126608
sg6
I5
sg7
I208
sg8
S'Answer42.txt'
p2087
sa(dp2088
g4
F5.1741741741741745
sg5
F2.8673882906406294
sg6
I11
sg7
I333
sg8
S'Answer43.txt'
p2089
sa(dp2090
g4
F5.0703363914373085
sg5
F2.7679811160313665
sg6
I11
sg7
I327
sg8
S'Answer44.txt'
p2091
sa(dp2092
g4
F5.051282051282051
sg5
F3.3813115187917457
sg6
I10
sg7
I273
sg8
S'Answer45.txt'
p2093
sa(dp2094
g4
F4.90204081632653
sg5
F2.743191184712624
sg6
I5
sg7
I245
sg8
S'Answer46.txt'
p2095
sa(dp2096
g4
F4.99092558983666
sg5
F2.875187874536609
sg6
I23
sg7
I551
sg8
S'Answer47.txt'
p2097
sa(dp2098
g4
F4.9105431309904155
sg5
F2.666497390061879
sg6
I12
sg7
I313
sg8
S'Answer49.txt'
p2099
sa(dp2100
g4
F5.1811224489795915
sg5
F2.9722956779652994
sg6
I31
sg7
I784
sg8
S'Answer50.txt'
p2101
sasS'James-Altucher'
p2102
(lp2103
(dp2104
g4
F4.293921731890092
sg5
F2.424075337010537
sg6
I56
sg7
I1201
sg8
S'Answer1.txt'
p2105
sag2104
a(dp2106
g4
F4.263513513513513
sg5
F2.40146770011221
sg6
I30
sg7
I740
sg8
S'Answer2.txt'
p2107
sag2106
a(dp2108
g4
F4.511771995043371
sg5
F2.728444452007696
sg6
I57
sg7
I807
sg8
S'Answer3.txt'
p2109
sag2108
a(dp2110
g4
F4.477586206896552
sg5
F2.538907116461065
sg6
I55
sg7
I580
sg8
S'Answer4.txt'
p2111
sag2110
a(dp2112
g4
F4.251396648044692
sg5
F2.3906480785749245
sg6
I51
sg7
I537
sg8
S'Answer5.txt'
p2113
sag2112
a(dp2114
g4
F4.262842465753424
sg5
F2.332451852968425
sg6
I118
sg7
I1168
sg8
S'Answer6.txt'
p2115
sag2114
a(dp2116
g4
F4.587948874010956
sg5
F2.7095154105514023
sg6
I68
sg7
I1643
sg8
S'Answer7.txt'
p2117
sag2116
a(dp2118
g4
F4.366666666666666
sg5
F2.6252604322552004
sg6
I30
sg7
I870
sg8
S'Answer9.txt'
p2119
sag2118
a(dp2120
g4
F4.503731343283582
sg5
F2.5720920898887645
sg6
I22
sg7
I268
sg8
S'Answer10.txt'
p2121
sa(dp2122
g4
F4.371715610510046
sg5
F2.4842945302941506
sg6
I130
sg7
I2588
sg8
S'Answer11.txt'
p2123
sag2122
a(dp2124
g4
F4.457013574660634
sg5
F2.4242754470675694
sg6
I28
sg7
I442
sg8
S'Answer12.txt'
p2125
sa(dp2126
g4
F4.581270182992465
sg5
F2.6304735033167157
sg6
I48
sg7
I929
sg8
S'Answer13.txt'
p2127
sag2126
a(dp2128
g4
F4.699115044247788
sg5
F2.740663816469728
sg6
I40
sg7
I452
sg8
S'Answer14.txt'
p2129
sag2128
a(dp2130
g4
F4.185741088180112
sg5
F2.2274981263619305
sg6
I39
sg7
I533
sg8
S'Answer15.txt'
p2131
sag2130
a(dp2132
g4
F4.050122249388753
sg5
F2.330552099865947
sg6
I49
sg7
I818
sg8
S'Answer17.txt'
p2133
sag2132
a(dp2134
g4
F4.431111111111111
sg5
F2.5789882215538684
sg6
I48
sg7
I675
sg8
S'Answer18.txt'
p2135
sa(dp2136
g4
F4.237193763919822
sg5
F2.2555247016170696
sg6
I68
sg7
I898
sg8
S'Answer19.txt'
p2137
sa(dp2138
g4
F4.292158968850698
sg5
F2.507675170119136
sg6
I84
sg7
I931
sg8
S'Answer20.txt'
p2139
sa(dp2140
g4
F4.417021276595745
sg5
F2.460005115799572
sg6
I47
sg7
I470
sg8
S'Answer21.txt'
p2141
sag2140
a(dp2142
g4
F4.406218655967904
sg5
F2.3526764980435235
sg6
I91
sg7
I997
sg8
S'Answer22.txt'
p2143
sag2142
a(dp2144
g4
F4.744979919678715
sg5
F2.737737336284902
sg6
I37
sg7
I498
sg8
S'Answer23.txt'
p2145
sag2144
a(dp2146
g4
F4.129793510324483
sg5
F2.18758166171769
sg6
I31
sg7
I339
sg8
S'Answer24.txt'
p2147
sa(dp2148
g4
F4.239245283018868
sg5
F2.2089285792297906
sg6
I143
sg7
I1325
sg8
S'Answer25.txt'
p2149
sag2148
a(dp2150
g4
F4.172025723472669
sg5
F2.2867552545459717
sg6
I116
sg7
I1244
sg8
S'Answer26.txt'
p2151
sag2150
a(dp2152
g4
F4.234110169491525
sg5
F2.3795700127312576
sg6
I83
sg7
I944
sg8
S'Answer27.txt'
p2153
sa(dp2154
g4
F4.352617079889807
sg5
F2.3722831430232985
sg6
I69
sg7
I726
sg8
S'Answer28.txt'
p2155
sag2154
a(dp2156
g4
F4.21990171990172
sg5
F2.431781177552936
sg6
I68
sg7
I814
sg8
S'Answer29.txt'
p2157
sa(dp2158
g4
F4.495771670190275
sg5
F2.7303948646667684
sg6
I65
sg7
I946
sg8
S'Answer30.txt'
p2159
sag2158
a(dp2160
g4
F4.445168295331162
sg5
F2.464840932800968
sg6
I57
sg7
I921
sg8
S'Answer31.txt'
p2161
sag2160
a(dp2162
g4
F4.634730538922156
sg5
F2.6198443100359734
sg6
I35
sg7
I668
sg8
S'Answer32.txt'
p2163
sag2162
a(dp2164
g4
F4.634730538922156
sg5
F2.6198443100359734
sg6
I35
sg7
I668
sg8
S'Answer33.txt'
p2165
sag2164
a(dp2166
g4
F4.276872964169381
sg5
F2.2557436387771532
sg6
I69
sg7
I921
sg8
S'Answer34.txt'
p2167
sag2166
a(dp2168
g4
F4.319223985890653
sg5
F2.3958200636898197
sg6
I167
sg7
I1701
sg8
S'Answer35.txt'
p2169
sag2168
a(dp2170
g4
F4.11611030478955
sg5
F2.1620527174423287
sg6
I57
sg7
I689
sg8
S'Answer36.txt'
p2171
sa(dp2172
g4
F4.007821229050279
sg5
F2.1921508662851923
sg6
I100
sg7
I895
sg8
S'Answer37.txt'
p2173
sag2172
a(dp2174
g4
F4.714584422373235
sg5
F2.726432836860883
sg6
I129
sg7
I1913
sg8
S'Answer38.txt'
p2175
sag2174
a(dp2176
g4
F4.409799554565701
sg5
F2.3347843583317704
sg6
I66
sg7
I898
sg8
S'Answer39.txt'
p2177
sag2176
a(dp2178
g4
F4.8907284768211925
sg5
F2.7163924994454267
sg6
I43
sg7
I604
sg8
S'Answer40.txt'
p2179
sag2178
a(dp2180
g4
F4.352504638218924
sg5
F2.6140139375936666
sg6
I25
sg7
I539
sg8
S'Answer41.txt'
p2181
sa(dp2182
g4
F4.389473684210526
sg5
F2.58047215933382
sg6
I11
sg7
I190
sg8
S'Answer42.txt'
p2183
sa(dp2184
g4
F4.677189409368635
sg5
F2.694693632055671
sg6
I42
sg7
I982
sg8
S'Answer44.txt'
p2185
sag2184
a(dp2186
g4
F4.387688984881209
sg5
F2.255738938381203
sg6
I91
sg7
I926
sg8
S'Answer45.txt'
p2187
sa(dp2188
g4
F4.424778761061947
sg5
F2.512993876910489
sg6
I44
sg7
I565
sg8
S'Answer46.txt'
p2189
sa(dp2190
g4
F3.88
sg5
F2.1403023425785137
sg6
I64
sg7
I425
sg8
S'Answer47.txt'
p2191
sa(dp2192
g4
F4.35230352303523
sg5
F2.4545740400672083
sg6
I34
sg7
I738
sg8
S'Answer48.txt'
p2193
sa(dp2194
g4
F4.277511961722488
sg5
F2.478524320009958
sg6
I48
sg7
I627
sg8
S'Answer49.txt'
p2195
sag2194
asS'Rachel-Laine'
p2196
(lp2197
(dp2198
g4
F4.4811643835616435
sg5
F2.7096329959937457
sg6
I36
sg7
I584
sg8
S'Answer1.txt'
p2199
sa(dp2200
g4
F4.635726795096322
sg5
F2.5825194303957018
sg6
I25
sg7
I571
sg8
S'Answer2.txt'
p2201
sa(dp2202
g4
F4.848167539267016
sg5
F2.88578104577979
sg6
I9
sg7
I191
sg8
S'Answer3.txt'
p2203
sa(dp2204
g4
F5.006172839506172
sg5
F2.798802463444994
sg6
I7
sg7
I162
sg8
S'Answer4.txt'
p2205
sa(dp2206
g4
F4.585915492957747
sg5
F2.8324724567435213
sg6
I11
sg7
I355
sg8
S'Answer5.txt'
p2207
sa(dp2208
g4
F4.214285714285714
sg5
F2.3149176092066344
sg6
I6
sg7
I126
sg8
S'Answer6.txt'
p2209
sa(dp2210
g4
F4.497695852534562
sg5
F2.7138905770454995
sg6
I23
sg7
I434
sg8
S'Answer7.txt'
p2211
sa(dp2212
g4
F4.382838283828383
sg5
F2.338930645531616
sg6
I14
sg7
I303
sg8
S'Answer8.txt'
p2213
sa(dp2214
g4
F4.931506849315069
sg5
F3.028760617825395
sg6
I8
sg7
I146
sg8
S'Answer9.txt'
p2215
sa(dp2216
g4
F4.382671480144404
sg5
F2.2668835643324896
sg6
I9
sg7
I277
sg8
S'Answer10.txt'
p2217
sa(dp2218
g4
F4.662337662337662
sg5
F2.706943403043893
sg6
I14
sg7
I308
sg8
S'Answer11.txt'
p2219
sa(dp2220
g4
F4.545454545454546
sg5
F2.570390679113177
sg6
I21
sg7
I429
sg8
S'Answer12.txt'
p2221
sa(dp2222
g4
F4.268929503916449
sg5
F2.1578082518957395
sg6
I14
sg7
I383
sg8
S'Answer13.txt'
p2223
sa(dp2224
g4
F4.244736842105263
sg5
F2.5392909669745323
sg6
I18
sg7
I380
sg8
S'Answer14.txt'
p2225
sa(dp2226
g4
F4.582142857142857
sg5
F2.39352602591547
sg6
I8
sg7
I280
sg8
S'Answer15.txt'
p2227
sa(dp2228
g4
F5.022471910112359
sg5
F3.0537415918648243
sg6
I3
sg7
I89
sg8
S'Answer16.txt'
p2229
sa(dp2230
g4
F4.815789473684211
sg5
F2.984068191784921
sg6
I6
sg7
I114
sg8
S'Answer17.txt'
p2231
sa(dp2232
g4
F4.358677685950413
sg5
F2.2756951320706724
sg6
I27
sg7
I605
sg8
S'Answer18.txt'
p2233
sa(dp2234
g4
F4.905882352941177
sg5
F2.8886126505612846
sg6
I9
sg7
I170
sg8
S'Answer19.txt'
p2235
sa(dp2236
g4
F4.960122699386503
sg5
F2.64487094509982
sg6
I15
sg7
I326
sg8
S'Answer20.txt'
p2237
sa(dp2238
g4
F4.466101694915254
sg5
F2.4509845942362767
sg6
I24
sg7
I472
sg8
S'Answer21.txt'
p2239
sa(dp2240
g4
F4.740875912408759
sg5
F2.612855773128628
sg6
I23
sg7
I274
sg8
S'Answer22.txt'
p2241
sa(dp2242
g4
F4.870619946091645
sg5
F2.826420286728456
sg6
I15
sg7
I371
sg8
S'Answer23.txt'
p2243
sa(dp2244
g4
F4.867088607594937
sg5
F3.0793399555373795
sg6
I18
sg7
I316
sg8
S'Answer25.txt'
p2245
sa(dp2246
g4
F4.6906906906906904
sg5
F2.7097538983481555
sg6
I13
sg7
I333
sg8
S'Answer26.txt'
p2247
sa(dp2248
g4
F4.3352272727272725
sg5
F2.1242934532733067
sg6
I16
sg7
I352
sg8
S'Answer27.txt'
p2249
sa(dp2250
g4
F4.890243902439025
sg5
F2.5898775635481552
sg6
I8
sg7
I164
sg8
S'Answer29.txt'
p2251
sa(dp2252
g4
F4.801418439716312
sg5
F2.961262568941357
sg6
I6
sg7
I141
sg8
S'Answer30.txt'
p2253
sa(dp2254
g4
F4.367149758454106
sg5
F2.5538609762054336
sg6
I11
sg7
I207
sg8
S'Answer31.txt'
p2255
sa(dp2256
g4
F4.504504504504505
sg5
F2.4746421121675444
sg6
I9
sg7
I222
sg8
S'Answer32.txt'
p2257
sa(dp2258
g4
F4.4672897196261685
sg5
F2.5035218445907192
sg6
I13
sg7
I214
sg8
S'Answer33.txt'
p2259
sa(dp2260
g4
F4.725888324873097
sg5
F2.6612446703846104
sg6
I8
sg7
I197
sg8
S'Answer34.txt'
p2261
sa(dp2262
g4
F4.371980676328502
sg5
F2.3635287300131576
sg6
I7
sg7
I207
sg8
S'Answer35.txt'
p2263
sa(dp2264
g4
F4.445714285714286
sg5
F2.501695751416038
sg6
I8
sg7
I175
sg8
S'Answer36.txt'
p2265
sa(dp2266
g4
F4.204545454545454
sg5
F2.1941334879823056
sg6
I6
sg7
I132
sg8
S'Answer37.txt'
p2267
sa(dp2268
g4
F4.654811715481172
sg5
F2.497716083546122
sg6
I33
sg7
I478
sg8
S'Answer38.txt'
p2269
sa(dp2270
g4
F4.4413075780089155
sg5
F2.5621347344008685
sg6
I33
sg7
I673
sg8
S'Answer40.txt'
p2271
sag2270
a(dp2272
g4
F4.63963963963964
sg5
F2.6839287889238586
sg6
I7
sg7
I111
sg8
S'Answer41.txt'
p2273
sa(dp2274
g4
F4.680170575692964
sg5
F2.8895907540171457
sg6
I13
sg7
I469
sg8
S'Answer42.txt'
p2275
sa(dp2276
g4
F4.540308747855918
sg5
F2.3988285964983036
sg6
I36
sg7
I583
sg8
S'Answer44.txt'
p2277
sa(dp2278
g4
F4.882478632478633
sg5
F2.583038165431035
sg6
I24
sg7
I468
sg8
S'Answer45.txt'
p2279
sa(dp2280
g4
F4.799295774647887
sg5
F2.5643546940749813
sg6
I10
sg7
I284
sg8
S'Answer46.txt'
p2281
sa(dp2282
g4
F4.507739938080495
sg5
F2.4123846161180342
sg6
I32
sg7
I646
sg8
S'Answer47.txt'
p2283
sa(dp2284
g4
F4.445134575569358
sg5
F2.537216186232113
sg6
I30
sg7
I483
sg8
S'Answer48.txt'
p2285
sa(dp2286
g4
F4.569565217391304
sg5
F2.5778209170788577
sg6
I11
sg7
I230
sg8
S'Answer49.txt'
p2287
sasS'Craig-Weiland'
p2288
(lp2289
(dp2290
g4
F4.926795580110498
sg5
F2.7459463256600385
sg6
I24
sg7
I724
sg8
S'Answer1.txt'
p2291
sa(dp2292
g4
F4.700598802395209
sg5
F2.3356517511207735
sg6
I9
sg7
I167
sg8
S'Answer2.txt'
p2293
sa(dp2294
g4
F4.546255506607929
sg5
F2.5206323215326627
sg6
I8
sg7
I227
sg8
S'Answer3.txt'
p2295
sa(dp2296
g4
F4.413533834586466
sg5
F2.4034055397924092
sg6
I6
sg7
I133
sg8
S'Answer4.txt'
p2297
sa(dp2298
g4
F6.012345679012346
sg5
F3.1130701259208866
sg6
I3
sg7
I81
sg8
S'Answer5.txt'
p2299
sa(dp2300
g4
F4.75
sg5
F2.562578846558206
sg6
I16
sg7
I232
sg8
S'Answer6.txt'
p2301
sa(dp2302
g4
F4.265822784810126
sg5
F2.3078047403646678
sg6
I12
sg7
I237
sg8
S'Answer8.txt'
p2303
sa(dp2304
g4
F5.059523809523809
sg5
F3.38185350164314
sg6
I2
sg7
I84
sg8
S'Answer9.txt'
p2305
sa(dp2306
g4
F5.2215189873417724
sg5
F2.8073669309661873
sg6
I5
sg7
I158
sg8
S'Answer10.txt'
p2307
sa(dp2308
g4
F4.509090909090909
sg5
F2.7486301789113745
sg6
I22
sg7
I495
sg8
S'Answer11.txt'
p2309
sa(dp2310
g4
F4.951048951048951
sg5
F2.815612495510794
sg6
I6
sg7
I286
sg8
S'Answer12.txt'
p2311
sa(dp2312
g4
F4.690789473684211
sg5
F2.8910787292698505
sg6
I8
sg7
I152
sg8
S'Answer14.txt'
p2313
sa(dp2314
g4
F4.337979094076655
sg5
F2.4624115172730963
sg6
I12
sg7
I287
sg8
S'Answer15.txt'
p2315
sa(dp2316
g4
F5.028301886792453
sg5
F3.103429469941616
sg6
I3
sg7
I106
sg8
S'Answer16.txt'
p2317
sa(dp2318
g4
F4.493959731543624
sg5
F2.7324111875241806
sg6
I32
sg7
I745
sg8
S'Answer17.txt'
p2319
sag2318
a(dp2320
g4
F4.878136200716846
sg5
F2.7303265857042596
sg6
I14
sg7
I279
sg8
S'Answer18.txt'
p2321
sa(dp2322
g4
F4.651785714285714
sg5
F2.4846306905388067
sg6
I5
sg7
I112
sg8
S'Answer20.txt'
p2323
sa(dp2324
g4
F4.573221757322176
sg5
F2.7263387707845674
sg6
I10
sg7
I239
sg8
S'Answer22.txt'
p2325
sa(dp2326
g4
F4.822916666666667
sg5
F2.8394350658283343
sg6
I6
sg7
I96
sg8
S'Answer23.txt'
p2327
sa(dp2328
g4
F4.8647342995169085
sg5
F3.0170310136179768
sg6
I18
sg7
I414
sg8
S'Answer27.txt'
p2329
sa(dp2330
g4
F4.319371727748691
sg5
F2.433963785676776
sg6
I6
sg7
I191
sg8
S'Answer29.txt'
p2331
sa(dp2332
g4
F4.790996784565916
sg5
F2.678612919707344
sg6
I14
sg7
I311
sg8
S'Answer30.txt'
p2333
sa(dp2334
g4
F5.223300970873787
sg5
F3.0046308557490797
sg6
I5
sg7
I103
sg8
S'Answer33.txt'
p2335
sa(dp2336
g4
F4.572815533980583
sg5
F2.2408473681037124
sg6
I5
sg7
I103
sg8
S'Answer34.txt'
p2337
sa(dp2338
g4
F5.625498007968128
sg5
F4.486720917621859
sg6
I12
sg7
I251
sg8
S'Answer35.txt'
p2339
sa(dp2340
g4
F5.054054054054054
sg5
F3.110105116377258
sg6
I4
sg7
I148
sg8
S'Answer36.txt'
p2341
sa(dp2342
g4
F4.57089552238806
sg5
F2.9126928768846496
sg6
I10
sg7
I268
sg8
S'Answer38.txt'
p2343
sa(dp2344
g4
F4.358585858585859
sg5
F2.5619007345994955
sg6
I6
sg7
I198
sg8
S'Answer39.txt'
p2345
sa(dp2346
g4
F4.6683168316831685
sg5
F2.7311706659504793
sg6
I13
sg7
I202
sg8
S'Answer40.txt'
p2347
sa(dp2348
g4
F4.558052434456929
sg5
F2.5112855290640663
sg6
I15
sg7
I267
sg8
S'Answer41.txt'
p2349
sa(dp2350
g4
F5.113475177304965
sg5
F3.0013996701339654
sg6
I6
sg7
I141
sg8
S'Answer42.txt'
p2351
sa(dp2352
g4
F4.637362637362638
sg5
F2.649969867199545
sg6
I2
sg7
I91
sg8
S'Answer43.txt'
p2353
sa(dp2354
g4
F4.610091743119266
sg5
F2.603682817043327
sg6
I10
sg7
I218
sg8
S'Answer44.txt'
p2355
sa(dp2356
g4
F4.426229508196721
sg5
F3.960704592033945
sg6
I3
sg7
I122
sg8
S'Answer45.txt'
p2357
sa(dp2358
g4
F5.1063829787234045
sg5
F2.981032539618358
sg6
I9
sg7
I235
sg8
S'Answer47.txt'
p2359
sa(dp2360
g4
F4.235294117647059
sg5
F2.4643414788113267
sg6
I6
sg7
I187
sg8
S'Answer48.txt'
p2361
sa(dp2362
g4
F4.730263157894737
sg5
F2.6081108174330097
sg6
I7
sg7
I152
sg8
S'Answer49.txt'
p2363
sasS'Glenn-Anderson'
p2364
(lp2365
(dp2366
g4
F4.330645161290323
sg5
F2.481290553235023
sg6
I13
sg7
I124
sg8
S'Answer4.txt'
p2367
sa(dp2368
g4
F4.46218487394958
sg5
F2.044833275718461
sg6
I8
sg7
I119
sg8
S'Answer7.txt'
p2369
sa(dp2370
g4
F4.426751592356688
sg5
F2.4707301111701137
sg6
I22
sg7
I314
sg8
S'Answer12.txt'
p2371
sa(dp2372
g4
F4.441048034934497
sg5
F2.4587906180416224
sg6
I11
sg7
I229
sg8
S'Answer18.txt'
p2373
sa(dp2374
g4
F4.627737226277373
sg5
F2.9472424307390304
sg6
I6
sg7
I137
sg8
S'Answer26.txt'
p2375
sa(dp2376
g4
F4.598290598290598
sg5
F2.5689128668100127
sg6
I12
sg7
I117
sg8
S'Answer27.txt'
p2377
sa(dp2378
g4
F4.57
sg5
F2.371729326883657
sg6
I8
sg7
I100
sg8
S'Answer29.txt'
p2379
sa(dp2380
g4
F5.6645569620253164
sg5
F2.713330336059011
sg6
I17
sg7
I158
sg8
S'Answer31.txt'
p2381
sa(dp2382
g4
F4.566929133858268
sg5
F2.7165011980040643
sg6
I9
sg7
I127
sg8
S'Answer32.txt'
p2383
sa(dp2384
g4
F4.672727272727273
sg5
F2.5800249854642563
sg6
I8
sg7
I110
sg8
S'Answer35.txt'
p2385
sa(dp2386
g4
F4.365269461077844
sg5
F2.481932995561446
sg6
I29
sg7
I501
sg8
S'Answer36.txt'
p2387
sa(dp2388
g4
F4.036269430051814
sg5
F2.1983815455092026
sg6
I8
sg7
I193
sg8
S'Answer37.txt'
p2389
sa(dp2390
g4
F5.135869565217392
sg5
F2.854823588615801
sg6
I9
sg7
I184
sg8
S'Answer43.txt'
p2391
sa(dp2392
g4
F5.333333333333333
sg5
F2.9424682934773747
sg6
I3
sg7
I156
sg8
S'Answer44.txt'
p2393
sa(dp2394
g4
F5.0
sg5
F2.7386127875258306
sg6
I4
sg7
I96
sg8
S'Answer46.txt'
p2395
sa(dp2396
g4
F5.531506849315068
sg5
F3.2312208436385177
sg6
I19
sg7
I365
sg8
S'Answer47.txt'
p2397
sa(dp2398
g4
F4.438095238095238
sg5
F2.6074026832912613
sg6
I7
sg7
I105
sg8
S'Answer48.txt'
p2399
sa(dp2400
g4
F5.004048582995951
sg5
F2.767652911279847
sg6
I23
sg7
I494
sg8
S'Answer49.txt'
p2401
sag2400
asS'Ben-Y-Zhao'
p2402
(lp2403
(dp2404
g4
F4.808080808080808
sg5
F2.5768070747614695
sg6
I7
sg7
I99
sg8
S'Answer1.txt'
p2405
sa(dp2406
g4
F4.91542288557214
sg5
F2.7997531776915032
sg6
I6
sg7
I201
sg8
S'Answer2.txt'
p2407
sa(dp2408
g4
F4.728682170542636
sg5
F2.977309377868307
sg6
I8
sg7
I129
sg8
S'Answer4.txt'
p2409
sa(dp2410
g4
F4.469879518072289
sg5
F2.1387832899542953
sg6
I11
sg7
I166
sg8
S'Answer6.txt'
p2411
sa(dp2412
g4
F5.025477707006369
sg5
F2.7367493027894074
sg6
I7
sg7
I157
sg8
S'Answer9.txt'
p2413
sa(dp2414
g4
F4.7443609022556394
sg5
F4.0590641821931195
sg6
I7
sg7
I133
sg8
S'Answer11.txt'
p2415
sa(dp2416
g4
F5.041666666666667
sg5
F3.0853034246605664
sg6
I4
sg7
I96
sg8
S'Answer15.txt'
p2417
sa(dp2418
g4
F4.831223628691983
sg5
F2.961959199617917
sg6
I10
sg7
I237
sg8
S'Answer16.txt'
p2419
sa(dp2420
g4
F4.811224489795919
sg5
F2.773798053839156
sg6
I13
sg7
I196
sg8
S'Answer17.txt'
p2421
sa(dp2422
g4
F4.478494623655914
sg5
F2.5531068765504847
sg6
I10
sg7
I186
sg8
S'Answer18.txt'
p2423
sa(dp2424
g4
F3.9215686274509802
sg5
F1.9588225480379888
sg6
I5
sg7
I102
sg8
S'Answer20.txt'
p2425
sa(dp2426
g4
F4.655913978494624
sg5
F2.3117029223501966
sg6
I5
sg7
I93
sg8
S'Answer22.txt'
p2427
sa(dp2428
g4
F4.836879432624113
sg5
F3.145691894655579
sg6
I5
sg7
I141
sg8
S'Answer23.txt'
p2429
sa(dp2430
g4
F4.979166666666667
sg5
F2.6672362672915844
sg6
I13
sg7
I192
sg8
S'Answer26.txt'
p2431
sa(dp2432
g4
F4.785046728971962
sg5
F2.744673813700051
sg6
I4
sg7
I107
sg8
S'Answer29.txt'
p2433
sa(dp2434
g4
F4.654205607476635
sg5
F2.5763221040649764
sg6
I7
sg7
I107
sg8
S'Answer31.txt'
p2435
sa(dp2436
g4
F4.673267326732673
sg5
F2.765089692531571
sg6
I5
sg7
I101
sg8
S'Answer33.txt'
p2437
sa(dp2438
g4
F4.3133333333333335
sg5
F2.1973822810082204
sg6
I7
sg7
I150
sg8
S'Answer35.txt'
p2439
sa(dp2440
g4
F4.407843137254902
sg5
F2.5123883752204987
sg6
I13
sg7
I255
sg8
S'Answer36.txt'
p2441
sa(dp2442
g4
F4.218181818181818
sg5
F2.4335352193695208
sg6
I13
sg7
I330
sg8
S'Answer39.txt'
p2443
sa(dp2444
g4
F5.517985611510792
sg5
F3.376500504141712
sg6
I4
sg7
I139
sg8
S'Answer40.txt'
p2445
sa(dp2446
g4
F5.22289156626506
sg5
F2.83667144587747
sg6
I32
sg7
I664
sg8
S'Answer41.txt'
p2447
sa(dp2448
g4
F4.933333333333334
sg5
F2.8110891523077326
sg6
I9
sg7
I150
sg8
S'Answer42.txt'
p2449
sa(dp2450
g4
F4.236162361623617
sg5
F2.4045510423644845
sg6
I14
sg7
I271
sg8
S'Answer45.txt'
p2451
sa(dp2452
g4
F4.908424908424909
sg5
F2.7567503714811807
sg6
I18
sg7
I273
sg8
S'Answer46.txt'
p2453
sa(dp2454
g4
F4.793859649122807
sg5
F3.1618000948748715
sg6
I8
sg7
I228
sg8
S'Answer49.txt'
p2455
sa(dp2456
g4
F4.472222222222222
sg5
F2.4035403414212784
sg6
I11
sg7
I144
sg8
S'Answer50.txt'
p2457
sasS'Shefaly-Yogendra'
p2458
(lp2459
(dp2460
g4
F4.474285714285714
sg5
F2.3947970814297572
sg6
I9
sg7
I175
sg8
S'Answer1.txt'
p2461
sa(dp2462
g4
F5.101321585903084
sg5
F2.653789247915785
sg6
I10
sg7
I227
sg8
S'Answer2.txt'
p2463
sa(dp2464
g4
F5.0
sg5
F3.1736527963959875
sg6
I5
sg7
I111
sg8
S'Answer3.txt'
p2465
sa(dp2466
g4
F4.415584415584416
sg5
F2.2697940255007043
sg6
I6
sg7
I154
sg8
S'Answer4.txt'
p2467
sa(dp2468
g4
F4.66887417218543
sg5
F2.9259933977810557
sg6
I12
sg7
I453
sg8
S'Answer5.txt'
p2469
sa(dp2470
g4
F4.467128027681661
sg5
F2.443788621063483
sg6
I11
sg7
I289
sg8
S'Answer6.txt'
p2471
sa(dp2472
g4
F4.422391857506361
sg5
F2.5966718528893176
sg6
I15
sg7
I393
sg8
S'Answer7.txt'
p2473
sa(dp2474
g4
F5.132231404958677
sg5
F3.297738139848846
sg6
I4
sg7
I121
sg8
S'Answer8.txt'
p2475
sa(dp2476
g4
F4.721311475409836
sg5
F3.0116230989066883
sg6
I7
sg7
I122
sg8
S'Answer9.txt'
p2477
sa(dp2478
g4
F4.755813953488372
sg5
F2.6344588010991936
sg6
I6
sg7
I172
sg8
S'Answer10.txt'
p2479
sa(dp2480
g4
F4.91588785046729
sg5
F2.6302393030218387
sg6
I5
sg7
I107
sg8
S'Answer12.txt'
p2481
sa(dp2482
g4
F4.816091954022989
sg5
F2.5439978296102574
sg6
I4
sg7
I87
sg8
S'Answer13.txt'
p2483
sa(dp2484
g4
F4.666115702479339
sg5
F2.693289908655862
sg6
I27
sg7
I605
sg8
S'Answer15.txt'
p2485
sa(dp2486
g4
F4.533333333333333
sg5
F2.41844761962894
sg6
I6
sg7
I150
sg8
S'Answer17.txt'
p2487
sa(dp2488
g4
F5.268595041322314
sg5
F3.480489493878729
sg6
I17
sg7
I242
sg8
S'Answer18.txt'
p2489
sa(dp2490
g4
F5.820408163265306
sg5
F3.661213113990474
sg6
I4
sg7
I245
sg8
S'Answer19.txt'
p2491
sa(dp2492
g4
F5.145833333333333
sg5
F3.3738552585366746
sg6
I11
sg7
I240
sg8
S'Answer20.txt'
p2493
sa(dp2494
g4
F4.986702127659575
sg5
F2.8137832820031767
sg6
I14
sg7
I376
sg8
S'Answer21.txt'
p2495
sa(dp2496
g4
F4.651041666666667
sg5
F2.577567279742124
sg6
I10
sg7
I192
sg8
S'Answer22.txt'
p2497
sa(dp2498
g4
F4.282608695652174
sg5
F2.4464974384711966
sg6
I9
sg7
I184
sg8
S'Answer24.txt'
p2499
sa(dp2500
g4
F4.86875
sg5
F2.8468664242461443
sg6
I9
sg7
I640
sg8
S'Answer26.txt'
p2501
sa(dp2502
g4
F5.1855203619909505
sg5
F2.899050917530781
sg6
I14
sg7
I221
sg8
S'Answer27.txt'
p2503
sa(dp2504
g4
F4.602150537634409
sg5
F2.560269019857274
sg6
I13
sg7
I279
sg8
S'Answer29.txt'
p2505
sa(dp2506
g4
F4.452755905511811
sg5
F2.5370739787181527
sg6
I15
sg7
I254
sg8
S'Answer30.txt'
p2507
sa(dp2508
g4
F4.556390977443609
sg5
F2.608296577290735
sg6
I6
sg7
I133
sg8
S'Answer31.txt'
p2509
sa(dp2510
g4
F5.140425531914894
sg5
F2.9995502907239544
sg6
I9
sg7
I235
sg8
S'Answer32.txt'
p2511
sa(dp2512
g4
F4.475524475524476
sg5
F2.535984844300104
sg6
I9
sg7
I143
sg8
S'Answer33.txt'
p2513
sa(dp2514
g4
F4.760775862068965
sg5
F2.572419246030556
sg6
I21
sg7
I464
sg8
S'Answer34.txt'
p2515
sa(dp2516
g4
F4.573476702508961
sg5
F2.6735420289645817
sg6
I12
sg7
I279
sg8
S'Answer35.txt'
p2517
sa(dp2518
g4
F4.67612293144208
sg5
F2.6863761179005365
sg6
I22
sg7
I423
sg8
S'Answer36.txt'
p2519
sa(dp2520
g4
F4.877005347593583
sg5
F2.5606766349635848
sg6
I7
sg7
I187
sg8
S'Answer37.txt'
p2521
sa(dp2522
g4
F4.488888888888889
sg5
F2.7618208343387614
sg6
I5
sg7
I135
sg8
S'Answer38.txt'
p2523
sa(dp2524
g4
F4.860369609856263
sg5
F2.9347822552918363
sg6
I19
sg7
I487
sg8
S'Answer39.txt'
p2525
sa(dp2526
g4
F4.677777777777778
sg5
F2.703198836677998
sg6
I7
sg7
I90
sg8
S'Answer40.txt'
p2527
sa(dp2528
g4
F4.432
sg5
F2.8265484251998942
sg6
I5
sg7
I125
sg8
S'Answer42.txt'
p2529
sa(dp2530
g4
F4.846733668341709
sg5
F3.0248762397412015
sg6
I19
sg7
I398
sg8
S'Answer44.txt'
p2531
sa(dp2532
g4
F5.506024096385542
sg5
F5.467039228607218
sg6
I3
sg7
I83
sg8
S'Answer45.txt'
p2533
sa(dp2534
g4
F4.211956521739131
sg5
F2.2514894775847494
sg6
I7
sg7
I184
sg8
S'Answer46.txt'
p2535
sa(dp2536
g4
F4.6106870229007635
sg5
F2.472976137851154
sg6
I16
sg7
I262
sg8
S'Answer47.txt'
p2537
sa(dp2538
g4
F4.845029239766082
sg5
F2.6878471078482935
sg6
I15
sg7
I342
sg8
S'Answer49.txt'
p2539
sa(dp2540
g4
F4.5479452054794525
sg5
F2.5412097354157903
sg6
I10
sg7
I219
sg8
S'Answer50.txt'
p2541
sasS'Inna-Vishik'
p2542
(lp2543
(dp2544
g4
F4.781362007168458
sg5
F2.821869967993325
sg6
I10
sg7
I279
sg8
S'Answer1.txt'
p2545
sa(dp2546
g4
F5.174479166666667
sg5
F3.1071615429090023
sg6
I12
sg7
I384
sg8
S'Answer2.txt'
p2547
sa(dp2548
g4
F5.1384839650145775
sg5
F3.4480408142508967
sg6
I36
sg7
I686
sg8
S'Answer3.txt'
p2549
sa(dp2550
g4
F4.559322033898305
sg5
F2.558277932719577
sg6
I9
sg7
I295
sg8
S'Answer4.txt'
p2551
sa(dp2552
g4
F5.2796934865900385
sg5
F3.175928606158129
sg6
I7
sg7
I261
sg8
S'Answer5.txt'
p2553
sa(dp2554
g4
F5.0550964187327825
sg5
F3.065356980916813
sg6
I8
sg7
I363
sg8
S'Answer6.txt'
p2555
sa(dp2556
g4
F4.877358490566038
sg5
F2.766725570221679
sg6
I5
sg7
I106
sg8
S'Answer7.txt'
p2557
sa(dp2558
g4
F5.162162162162162
sg5
F3.666181242157068
sg6
I8
sg7
I259
sg8
S'Answer8.txt'
p2559
sa(dp2560
g4
F5.4655172413793105
sg5
F3.3667518227379984
sg6
I5
sg7
I116
sg8
S'Answer9.txt'
p2561
sa(dp2562
g4
F5.575107296137339
sg5
F3.777579908754851
sg6
I9
sg7
I233
sg8
S'Answer10.txt'
p2563
sa(dp2564
g4
F5.355048859934853
sg5
F3.411180923195413
sg6
I6
sg7
I307
sg8
S'Answer11.txt'
p2565
sa(dp2566
g4
F5.023357664233576
sg5
F3.2884727396874647
sg6
I23
sg7
I685
sg8
S'Answer12.txt'
p2567
sa(dp2568
g4
F5.087209302325581
sg5
F3.5099734924117083
sg6
I23
sg7
I516
sg8
S'Answer13.txt'
p2569
sa(dp2570
g4
F4.939655172413793
sg5
F2.6499472769753565
sg6
I8
sg7
I116
sg8
S'Answer14.txt'
p2571
sa(dp2572
g4
F5.242990654205608
sg5
F3.2338969523401704
sg6
I11
sg7
I321
sg8
S'Answer15.txt'
p2573
sa(dp2574
g4
F5.285178236397749
sg5
F3.3063282628529564
sg6
I12
sg7
I533
sg8
S'Answer16.txt'
p2575
sa(dp2576
g4
F4.68937875751503
sg5
F2.878589928207769
sg6
I12
sg7
I499
sg8
S'Answer17.txt'
p2577
sa(dp2578
g4
F5.745501285347044
sg5
F4.305136714043479
sg6
I12
sg7
I389
sg8
S'Answer19.txt'
p2579
sag2578
a(dp2580
g4
F5.212707182320442
sg5
F3.2367970436997027
sg6
I12
sg7
I362
sg8
S'Answer20.txt'
p2581
sa(dp2582
g4
F5.337522441651705
sg5
F2.9601014651472246
sg6
I15
sg7
I557
sg8
S'Answer21.txt'
p2583
sa(dp2584
g4
F5.7604456824512535
sg5
F3.5125712668117104
sg6
I10
sg7
I359
sg8
S'Answer22.txt'
p2585
sa(dp2586
g4
F4.618556701030927
sg5
F2.6181101981527783
sg6
I4
sg7
I194
sg8
S'Answer23.txt'
p2587
sa(dp2588
g4
F4.707692307692308
sg5
F2.9263948780450875
sg6
I7
sg7
I325
sg8
S'Answer24.txt'
p2589
sa(dp2590
g4
F5.933797909407666
sg5
F3.834440553245273
sg6
I11
sg7
I287
sg8
S'Answer25.txt'
p2591
sa(dp2592
g4
F4.5210084033613445
sg5
F2.737381253311239
sg6
I4
sg7
I119
sg8
S'Answer26.txt'
p2593
sa(dp2594
g4
F5.148014440433213
sg5
F3.100559753785609
sg6
I9
sg7
I277
sg8
S'Answer27.txt'
p2595
sa(dp2596
g4
F4.850574712643678
sg5
F2.56648933093386
sg6
I2
sg7
I87
sg8
S'Answer28.txt'
p2597
sa(dp2598
g4
F4.952095808383233
sg5
F2.952332647700295
sg6
I8
sg7
I334
sg8
S'Answer29.txt'
p2599
sa(dp2600
g4
F4.990595611285267
sg5
F3.002074406543896
sg6
I16
sg7
I319
sg8
S'Answer30.txt'
p2601
sa(dp2602
g4
F4.765402843601896
sg5
F3.007799845203643
sg6
I18
sg7
I422
sg8
S'Answer31.txt'
p2603
sa(dp2604
g4
F5.157894736842105
sg5
F3.258400606929028
sg6
I2
sg7
I95
sg8
S'Answer32.txt'
p2605
sa(dp2606
g4
F5.7592592592592595
sg5
F3.97182291008561
sg6
I6
sg7
I162
sg8
S'Answer33.txt'
p2607
sa(dp2608
g4
F5.458333333333333
sg5
F3.0016942966920617
sg6
I4
sg7
I168
sg8
S'Answer34.txt'
p2609
sa(dp2610
g4
F5.511627906976744
sg5
F3.2680418219354084
sg6
I5
sg7
I172
sg8
S'Answer35.txt'
p2611
sa(dp2612
g4
F5.033333333333333
sg5
F3.033751933439975
sg6
I8
sg7
I210
sg8
S'Answer36.txt'
p2613
sa(dp2614
g4
F5.605922551252847
sg5
F3.2716162513430262
sg6
I16
sg7
I439
sg8
S'Answer39.txt'
p2615
sa(dp2616
g4
F5.311274509803922
sg5
F3.726385825005409
sg6
I12
sg7
I408
sg8
S'Answer40.txt'
p2617
sa(dp2618
g4
F5.25830258302583
sg5
F3.1423302158105955
sg6
I9
sg7
I271
sg8
S'Answer41.txt'
p2619
sa(dp2620
g4
F4.8533333333333335
sg5
F3.377151988814772
sg6
I4
sg7
I150
sg8
S'Answer42.txt'
p2621
sa(dp2622
g4
F5.38655462184874
sg5
F3.1545864801050993
sg6
I12
sg7
I476
sg8
S'Answer43.txt'
p2623
sa(dp2624
g4
F5.477941176470588
sg5
F3.531823624444863
sg6
I15
sg7
I544
sg8
S'Answer44.txt'
p2625
sa(dp2626
g4
F5.235294117647059
sg5
F3.166807586773479
sg6
I2
sg7
I119
sg8
S'Answer45.txt'
p2627
sa(dp2628
g4
F4.586374695863747
sg5
F2.648822764862095
sg6
I18
sg7
I411
sg8
S'Answer46.txt'
p2629
sa(dp2630
g4
F5.365591397849462
sg5
F2.8199936941764285
sg6
I3
sg7
I93
sg8
S'Answer47.txt'
p2631
sa(dp2632
g4
F5.587719298245614
sg5
F4.259790381772925
sg6
I19
sg7
I456
sg8
S'Answer48.txt'
p2633
sa(dp2634
g4
F6.336633663366337
sg5
F3.7608647302532443
sg6
I3
sg7
I101
sg8
S'Answer49.txt'
p2635
sa(dp2636
g4
F4.81957773512476
sg5
F2.987189637940115
sg6
I19
sg7
I521
sg8
S'Answer50.txt'
p2637
sasS'Balaji-Viswanathan-2'
p2638
(lp2639
(dp2640
g4
F4.698795180722891
sg5
F2.639984208418617
sg6
I15
sg7
I332
sg8
S'Answer1.txt'
p2641
sa(dp2642
g4
F4.725609756097561
sg5
F2.5574525709361158
sg6
I15
sg7
I328
sg8
S'Answer2.txt'
p2643
sa(dp2644
g4
F4.948453608247423
sg5
F2.8695742491803804
sg6
I10
sg7
I194
sg8
S'Answer3.txt'
p2645
sa(dp2646
g4
F4.950381679389313
sg5
F2.4325676456172904
sg6
I20
sg7
I262
sg8
S'Answer4.txt'
p2647
sa(dp2648
g4
F4.5353075170842825
sg5
F2.3821673930638783
sg6
I26
sg7
I439
sg8
S'Answer5.txt'
p2649
sa(dp2650
g4
F4.926056338028169
sg5
F2.6639528920216518
sg6
I15
sg7
I284
sg8
S'Answer6.txt'
p2651
sa(dp2652
g4
F4.42
sg5
F2.6203925551064153
sg6
I18
sg7
I350
sg8
S'Answer7.txt'
p2653
sa(dp2654
g4
F4.905
sg5
F2.6512842799921184
sg6
I25
sg7
I600
sg8
S'Answer8.txt'
p2655
sa(dp2656
g4
F5.463320463320463
sg5
F3.138010549702562
sg6
I15
sg7
I259
sg8
S'Answer9.txt'
p2657
sa(dp2658
g4
F4.484567901234568
sg5
F2.4726421862436725
sg6
I14
sg7
I324
sg8
S'Answer10.txt'
p2659
sa(dp2660
g4
F4.139705882352941
sg5
F2.6042182809187255
sg6
I7
sg7
I136
sg8
S'Answer11.txt'
p2661
sa(dp2662
g4
F5.188811188811189
sg5
F2.92911845959912
sg6
I15
sg7
I286
sg8
S'Answer12.txt'
p2663
sa(dp2664
g4
F4.635838150289017
sg5
F2.8851401258966627
sg6
I8
sg7
I173
sg8
S'Answer13.txt'
p2665
sa(dp2666
g4
F4.743190661478599
sg5
F2.429592673469971
sg6
I16
sg7
I257
sg8
S'Answer14.txt'
p2667
sa(dp2668
g4
F4.751313485113835
sg5
F2.516734365194211
sg6
I32
sg7
I571
sg8
S'Answer15.txt'
p2669
sa(dp2670
g4
F4.57051282051282
sg5
F2.8736472391307584
sg6
I7
sg7
I156
sg8
S'Answer16.txt'
p2671
sa(dp2672
g4
F4.528497409326425
sg5
F2.573372280195839
sg6
I14
sg7
I193
sg8
S'Answer17.txt'
p2673
sa(dp2674
g4
F4.425641025641026
sg5
F2.3876517751427935
sg6
I24
sg7
I390
sg8
S'Answer18.txt'
p2675
sa(dp2676
g4
F4.851851851851852
sg5
F2.5714414995211428
sg6
I19
sg7
I432
sg8
S'Answer19.txt'
p2677
sa(dp2678
g4
F4.911504424778761
sg5
F2.557506813194824
sg6
I11
sg7
I226
sg8
S'Answer20.txt'
p2679
sa(dp2680
g4
F4.828571428571428
sg5
F2.6816078028233923
sg6
I26
sg7
I490
sg8
S'Answer21.txt'
p2681
sag2680
a(dp2682
g4
F4.932075471698113
sg5
F2.822268162171989
sg6
I14
sg7
I265
sg8
S'Answer22.txt'
p2683
sa(dp2684
g4
F4.641379310344828
sg5
F2.5001403052186557
sg6
I18
sg7
I290
sg8
S'Answer23.txt'
p2685
sa(dp2686
g4
F5.28695652173913
sg5
F2.7998919773923716
sg6
I7
sg7
I115
sg8
S'Answer24.txt'
p2687
sa(dp2688
g4
F4.638059701492537
sg5
F2.7330835129891398
sg6
I18
sg7
I268
sg8
S'Answer26.txt'
p2689
sa(dp2690
g4
F5.241645244215938
sg5
F3.0180627381863747
sg6
I22
sg7
I389
sg8
S'Answer27.txt'
p2691
sa(dp2692
g4
F5.225609756097561
sg5
F3.0788939642072197
sg6
I7
sg7
I164
sg8
S'Answer29.txt'
p2693
sa(dp2694
g4
F4.7935483870967746
sg5
F2.6486680138625704
sg6
I9
sg7
I155
sg8
S'Answer30.txt'
p2695
sa(dp2696
g4
F4.945273631840796
sg5
F2.6149189365119128
sg6
I12
sg7
I201
sg8
S'Answer31.txt'
p2697
sa(dp2698
g4
F4.904040404040404
sg5
F2.62195158990048
sg6
I11
sg7
I198
sg8
S'Answer32.txt'
p2699
sa(dp2700
g4
F4.819277108433735
sg5
F2.621250406637119
sg6
I8
sg7
I166
sg8
S'Answer33.txt'
p2701
sa(dp2702
g4
F4.86697247706422
sg5
F2.5782632318715026
sg6
I17
sg7
I218
sg8
S'Answer34.txt'
p2703
sa(dp2704
g4
F5.056650246305419
sg5
F2.957705576403291
sg6
I24
sg7
I406
sg8
S'Answer35.txt'
p2705
sa(dp2706
g4
F4.858267716535433
sg5
F2.6029190441454566
sg6
I17
sg7
I254
sg8
S'Answer36.txt'
p2707
sa(dp2708
g4
F4.7875
sg5
F2.613055306669627
sg6
I34
sg7
I560
sg8
S'Answer37.txt'
p2709
sa(dp2710
g4
F4.976744186046512
sg5
F2.8118385286682734
sg6
I22
sg7
I430
sg8
S'Answer38.txt'
p2711
sag2710
a(dp2712
g4
F5.001831501831502
sg5
F2.8654178327468687
sg6
I28
sg7
I546
sg8
S'Answer39.txt'
p2713
sa(dp2714
g4
F4.858895705521473
sg5
F2.646626051292538
sg6
I8
sg7
I163
sg8
S'Answer40.txt'
p2715
sa(dp2716
g4
F5.270422535211267
sg5
F2.8856319329481166
sg6
I39
sg7
I710
sg8
S'Answer41.txt'
p2717
sa(dp2718
g4
F4.889460154241645
sg5
F2.628813443338578
sg6
I16
sg7
I389
sg8
S'Answer42.txt'
p2719
sa(dp2720
g4
F5.071294559099437
sg5
F2.8970097822950884
sg6
I23
sg7
I533
sg8
S'Answer43.txt'
p2721
sag2720
a(dp2722
g4
F4.8478260869565215
sg5
F2.671830617569407
sg6
I29
sg7
I414
sg8
S'Answer44.txt'
p2723
sa(dp2724
g4
F5.044715447154472
sg5
F2.61445958139909
sg6
I26
sg7
I492
sg8
S'Answer45.txt'
p2725
sa(dp2726
g4
F4.947882736156352
sg5
F2.8451719913770215
sg6
I13
sg7
I307
sg8
S'Answer46.txt'
p2727
sa(dp2728
g4
F4.449056603773585
sg5
F2.438343285496957
sg6
I28
sg7
I530
sg8
S'Answer47.txt'
p2729
sa(dp2730
g4
F4.828703703703703
sg5
F2.598666001294235
sg6
I10
sg7
I216
sg8
S'Answer48.txt'
p2731
sa(dp2732
g4
F5.265033407572383
sg5
F2.9680785084447354
sg6
I21
sg7
I449
sg8
S'Answer49.txt'
p2733
sa(dp2734
g4
F4.9
sg5
F2.7546770435089294
sg6
I37
sg7
I570
sg8
S'Answer50.txt'
p2735
sasS'Gayle-Laakmann-McDowell'
p2736
(lp2737
(dp2738
g4
F4.685352622061483
sg5
F2.6710054443250906
sg6
I24
sg7
I553
sg8
S'Answer1.txt'
p2739
sa(dp2740
g4
F4.955645161290323
sg5
F2.7419325189737296
sg6
I12
sg7
I248
sg8
S'Answer2.txt'
p2741
sa(dp2742
g4
F4.52605459057072
sg5
F2.6641990154720525
sg6
I47
sg7
I806
sg8
S'Answer3.txt'
p2743
sa(dp2744
g4
F4.644376899696049
sg5
F2.5488492529927274
sg6
I18
sg7
I329
sg8
S'Answer4.txt'
p2745
sa(dp2746
g4
F4.995348837209303
sg5
F2.761020496236524
sg6
I9
sg7
I215
sg8
S'Answer5.txt'
p2747
sa(dp2748
g4
F4.879411764705883
sg5
F2.8190819752875274
sg6
I24
sg7
I680
sg8
S'Answer6.txt'
p2749
sa(dp2750
g4
F4.5078125
sg5
F2.5602004735652537
sg6
I7
sg7
I256
sg8
S'Answer7.txt'
p2751
sa(dp2752
g4
F4.911870503597123
sg5
F2.918768851610204
sg6
I30
sg7
I556
sg8
S'Answer8.txt'
p2753
sa(dp2754
g4
F4.171875
sg5
F2.4145049149618645
sg6
I4
sg7
I128
sg8
S'Answer10.txt'
p2755
sa(dp2756
g4
F4.897172236503856
sg5
F2.9178499010203933
sg6
I20
sg7
I389
sg8
S'Answer11.txt'
p2757
sa(dp2758
g4
F4.6482758620689655
sg5
F2.6510402238984807
sg6
I15
sg7
I290
sg8
S'Answer12.txt'
p2759
sa(dp2760
g4
F4.625
sg5
F2.650668154761487
sg6
I4
sg7
I96
sg8
S'Answer13.txt'
p2761
sa(dp2762
g4
F5.00709219858156
sg5
F2.7841915793214853
sg6
I5
sg7
I141
sg8
S'Answer14.txt'
p2763
sa(dp2764
g4
F4.018264840182648
sg5
F2.3033893437003794
sg6
I9
sg7
I219
sg8
S'Answer15.txt'
p2765
sa(dp2766
g4
F4.553314121037464
sg5
F2.5530473901312383
sg6
I19
sg7
I347
sg8
S'Answer16.txt'
p2767
sa(dp2768
g4
F4.846153846153846
sg5
F2.973796265395397
sg6
I6
sg7
I143
sg8
S'Answer17.txt'
p2769
sa(dp2770
g4
F5.073878627968337
sg5
F2.7946100583817906
sg6
I18
sg7
I379
sg8
S'Answer18.txt'
p2771
sa(dp2772
g4
F4.709302325581396
sg5
F2.7604611978577624
sg6
I25
sg7
I430
sg8
S'Answer20.txt'
p2773
sa(dp2774
g4
F5.274193548387097
sg5
F3.8500217350540322
sg6
I7
sg7
I186
sg8
S'Answer21.txt'
p2775
sa(dp2776
g4
F4.924603174603175
sg5
F3.0638492883262414
sg6
I12
sg7
I252
sg8
S'Answer24.txt'
p2777
sa(dp2778
g4
F5.567656765676568
sg5
F3.643504567357536
sg6
I11
sg7
I303
sg8
S'Answer25.txt'
p2779
sa(dp2780
g4
F4.392857142857143
sg5
F2.0338337178434065
sg6
I10
sg7
I196
sg8
S'Answer26.txt'
p2781
sa(dp2782
g4
F4.6
sg5
F2.792336451279261
sg6
I4
sg7
I140
sg8
S'Answer27.txt'
p2783
sa(dp2784
g4
F4.686046511627907
sg5
F2.456418398130473
sg6
I24
sg7
I430
sg8
S'Answer29.txt'
p2785
sa(dp2786
g4
F4.398058252427185
sg5
F2.8906941613513415
sg6
I5
sg7
I103
sg8
S'Answer30.txt'
p2787
sa(dp2788
g4
F5.042755344418052
sg5
F2.7532017223573804
sg6
I20
sg7
I421
sg8
S'Answer31.txt'
p2789
sag2788
a(dp2790
g4
F4.415384615384616
sg5
F2.604093273127506
sg6
I6
sg7
I130
sg8
S'Answer32.txt'
p2791
sa(dp2792
g4
F5.754716981132075
sg5
F3.45540681261339
sg6
I5
sg7
I106
sg8
S'Answer33.txt'
p2793
sa(dp2794
g4
F4.817391304347826
sg5
F2.808628347558109
sg6
I4
sg7
I115
sg8
S'Answer34.txt'
p2795
sa(dp2796
g4
F5.336405529953917
sg5
F2.7778272817031007
sg6
I11
sg7
I217
sg8
S'Answer35.txt'
p2797
sa(dp2798
g4
F4.92170818505338
sg5
F3.0279114280162935
sg6
I14
sg7
I281
sg8
S'Answer36.txt'
p2799
sa(dp2800
g4
F4.815476190476191
sg5
F2.619311404464939
sg6
I26
sg7
I504
sg8
S'Answer38.txt'
p2801
sa(dp2802
g4
F4.672694394213382
sg5
F2.9009438151609936
sg6
I36
sg7
I553
sg8
S'Answer41.txt'
p2803
sa(dp2804
g4
F4.8059701492537314
sg5
F2.5406475022033654
sg6
I26
sg7
I402
sg8
S'Answer43.txt'
p2805
sa(dp2806
g4
F5.75626423690205
sg5
F6.210234823900955
sg6
I12
sg7
I439
sg8
S'Answer44.txt'
p2807
sag2806
a(dp2808
g4
F4.691304347826087
sg5
F2.6119146805890754
sg6
I11
sg7
I230
sg8
S'Answer45.txt'
p2809
sa(dp2810
g4
F4.719178082191781
sg5
F3.5016170120217667
sg6
I19
sg7
I438
sg8
S'Answer46.txt'
p2811
sag2810
a(dp2812
g4
F5.361370716510903
sg5
F2.991202571740346
sg6
I18
sg7
I321
sg8
S'Answer47.txt'
p2813
sa(dp2814
g4
F4.506912442396313
sg5
F2.3439692509665133
sg6
I8
sg7
I217
sg8
S'Answer49.txt'
p2815
sa(dp2816
g4
F4.895204262877442
sg5
F2.694253160245264
sg6
I31
sg7
I563
sg8
S'Answer50.txt'
p2817
sasS'David-Waddell'
p2818
(lp2819
(dp2820
g4
F4.401408450704225
sg5
F2.72975224371027
sg6
I4
sg7
I142
sg8
S'Answer1.txt'
p2821
sa(dp2822
g4
F4.89247311827957
sg5
F2.9125695915499525
sg6
I3
sg7
I93
sg8
S'Answer5.txt'
p2823
sa(dp2824
g4
F4.905511811023622
sg5
F2.871069571793928
sg6
I3
sg7
I127
sg8
S'Answer10.txt'
p2825
sa(dp2826
g4
F5.157894736842105
sg5
F3.1997229796990867
sg6
I1
sg7
I95
sg8
S'Answer11.txt'
p2827
sa(dp2828
g4
F4.882599580712788
sg5
F2.8679628401084614
sg6
I13
sg7
I477
sg8
S'Answer14.txt'
p2829
sa(dp2830
g4
F5.090425531914893
sg5
F3.08691711351813
sg6
I4
sg7
I188
sg8
S'Answer17.txt'
p2831
sa(dp2832
g4
F5.0
sg5
F3.087936776450181
sg6
I2
sg7
I99
sg8
S'Answer25.txt'
p2833
sa(dp2834
g4
F4.862903225806452
sg5
F2.7277979935949377
sg6
I5
sg7
I124
sg8
S'Answer26.txt'
p2835
sa(dp2836
g4
F4.580838323353293
sg5
F2.472191060280601
sg6
I7
sg7
I167
sg8
S'Answer29.txt'
p2837
sa(dp2838
g4
F4.792792792792793
sg5
F2.9564926783378285
sg6
I8
sg7
I222
sg8
S'Answer31.txt'
p2839
sa(dp2840
g4
F4.916666666666667
sg5
F3.26811192518793
sg6
I6
sg7
I96
sg8
S'Answer33.txt'
p2841
sa(dp2842
g4
F5.6434108527131785
sg5
F3.97823234013931
sg6
I4
sg7
I129
sg8
S'Answer35.txt'
p2843
sa(dp2844
g4
F4.965753424657534
sg5
F3.2780180772141967
sg6
I7
sg7
I146
sg8
S'Answer36.txt'
p2845
sa(dp2846
g4
F4.381818181818182
sg5
F2.6006356502063044
sg6
I7
sg7
I110
sg8
S'Answer37.txt'
p2847
sa(dp2848
g4
F5.083870967741936
sg5
F2.998827380955768
sg6
I6
sg7
I310
sg8
S'Answer40.txt'
p2849
sa(dp2850
g4
F4.757309941520468
sg5
F3.018876637989412
sg6
I8
sg7
I342
sg8
S'Answer41.txt'
p2851
sa(dp2852
g4
F4.992647058823529
sg5
F2.8786647321524628
sg6
I6
sg7
I136
sg8
S'Answer43.txt'
p2853
sa(dp2854
g4
F4.680672268907563
sg5
F3.0040106891160385
sg6
I3
sg7
I119
sg8
S'Answer44.txt'
p2855
sa(dp2856
g4
F4.8273809523809526
sg5
F2.859813979567977
sg6
I3
sg7
I168
sg8
S'Answer45.txt'
p2857
sasS'Mira-Zaslove'
p2858
(lp2859
(dp2860
g4
F4.528052805280528
sg5
F2.4719626167743205
sg6
I48
sg7
I606
sg8
S'Answer1.txt'
p2861
sa(dp2862
g4
F4.857385398981324
sg5
F2.606645670747341
sg6
I31
sg7
I589
sg8
S'Answer2.txt'
p2863
sa(dp2864
g4
F4.769652650822669
sg5
F2.8112389462956355
sg6
I34
sg7
I547
sg8
S'Answer3.txt'
p2865
sa(dp2866
g4
F5.134615384615385
sg5
F2.796716340276297
sg6
I10
sg7
I156
sg8
S'Answer4.txt'
p2867
sa(dp2868
g4
F4.674846625766871
sg5
F2.44167154748576
sg6
I42
sg7
I652
sg8
S'Answer5.txt'
p2869
sa(dp2870
g4
F4.609550561797753
sg5
F2.400098036439796
sg6
I18
sg7
I356
sg8
S'Answer6.txt'
p2871
sa(dp2872
g4
F4.763940520446097
sg5
F2.7943851183705353
sg6
I26
sg7
I538
sg8
S'Answer7.txt'
p2873
sa(dp2874
g4
F4.254166666666666
sg5
F2.2798901959426816
sg6
I15
sg7
I240
sg8
S'Answer8.txt'
p2875
sa(dp2876
g4
F4.4468546637744035
sg5
F2.3984575390717002
sg6
I27
sg7
I461
sg8
S'Answer9.txt'
p2877
sa(dp2878
g4
F5.085714285714285
sg5
F2.6765802122583713
sg6
I11
sg7
I175
sg8
S'Answer10.txt'
p2879
sa(dp2880
g4
F5.160256410256411
sg5
F3.036100727341149
sg6
I27
sg7
I624
sg8
S'Answer11.txt'
p2881
sa(dp2882
g4
F4.721442885771543
sg5
F2.4990100489381555
sg6
I32
sg7
I499
sg8
S'Answer12.txt'
p2883
sa(dp2884
g4
F5.223300970873787
sg5
F2.8384736731052627
sg6
I9
sg7
I206
sg8
S'Answer13.txt'
p2885
sa(dp2886
g4
F4.550724637681159
sg5
F2.437418468722679
sg6
I27
sg7
I483
sg8
S'Answer14.txt'
p2887
sa(dp2888
g4
F4.359116022099448
sg5
F2.309788752345442
sg6
I12
sg7
I181
sg8
S'Answer15.txt'
p2889
sa(dp2890
g4
F4.857142857142857
sg5
F2.797453428189383
sg6
I11
sg7
I182
sg8
S'Answer16.txt'
p2891
sa(dp2892
g4
F4.504854368932039
sg5
F2.3259773450873404
sg6
I31
sg7
I412
sg8
S'Answer18.txt'
p2893
sa(dp2894
g4
F4.495575221238938
sg5
F2.449937307506756
sg6
I10
sg7
I113
sg8
S'Answer19.txt'
p2895
sa(dp2896
g4
F4.853273137697517
sg5
F2.7025039613823827
sg6
I23
sg7
I443
sg8
S'Answer20.txt'
p2897
sa(dp2898
g4
F5.004854368932039
sg5
F2.8557514319225175
sg6
I26
sg7
I412
sg8
S'Answer21.txt'
p2899
sa(dp2900
g4
F5.416309012875536
sg5
F3.2271767287238258
sg6
I7
sg7
I233
sg8
S'Answer22.txt'
p2901
sa(dp2902
g4
F4.594017094017094
sg5
F2.663271041010355
sg6
I46
sg7
I702
sg8
S'Answer23.txt'
p2903
sa(dp2904
g4
F4.766045548654244
sg5
F2.540179460492328
sg6
I35
sg7
I483
sg8
S'Answer24.txt'
p2905
sa(dp2906
g4
F4.737517831669044
sg5
F2.529625685161469
sg6
I39
sg7
I701
sg8
S'Answer25.txt'
p2907
sa(dp2908
g4
F4.771784232365145
sg5
F2.436281886527658
sg6
I29
sg7
I482
sg8
S'Answer26.txt'
p2909
sag2908
a(dp2910
g4
F5.154185022026431
sg5
F3.5715490563342494
sg6
I8
sg7
I227
sg8
S'Answer27.txt'
p2911
sa(dp2912
g4
F5.197841726618705
sg5
F3.3576492210319246
sg6
I15
sg7
I278
sg8
S'Answer28.txt'
p2913
sa(dp2914
g4
F4.811494252873564
sg5
F2.6202318616083673
sg6
I25
sg7
I435
sg8
S'Answer29.txt'
p2915
sag2914
a(dp2916
g4
F5.586206896551724
sg5
F3.2707400974060925
sg6
I15
sg7
I290
sg8
S'Answer30.txt'
p2917
sa(dp2918
g4
F4.702290076335878
sg5
F2.7518986917207617
sg6
I15
sg7
I393
sg8
S'Answer31.txt'
p2919
sa(dp2920
g4
F4.524366471734893
sg5
F2.728788626235663
sg6
I23
sg7
I513
sg8
S'Answer32.txt'
p2921
sa(dp2922
g4
F5.189915966386555
sg5
F2.9039351729569725
sg6
I31
sg7
I595
sg8
S'Answer33.txt'
p2923
sa(dp2924
g4
F4.745403111739745
sg5
F2.754492937704844
sg6
I37
sg7
I707
sg8
S'Answer34.txt'
p2925
sa(dp2926
g4
F5.098039215686274
sg5
F3.2942110164171856
sg6
I40
sg7
I765
sg8
S'Answer35.txt'
p2927
sa(dp2928
g4
F4.307328605200945
sg5
F2.365056530156642
sg6
I20
sg7
I423
sg8
S'Answer36.txt'
p2929
sa(dp2930
g4
F4.786279683377309
sg5
F2.352615259726844
sg6
I28
sg7
I379
sg8
S'Answer37.txt'
p2931
sa(dp2932
g4
F4.5130718954248366
sg5
F2.4907985650315165
sg6
I17
sg7
I306
sg8
S'Answer38.txt'
p2933
sa(dp2934
g4
F4.615269461077844
sg5
F2.5943640699390484
sg6
I29
sg7
I668
sg8
S'Answer39.txt'
p2935
sa(dp2936
g4
F5.358620689655172
sg5
F2.9796455750097834
sg6
I10
sg7
I145
sg8
S'Answer40.txt'
p2937
sa(dp2938
g4
F4.8584905660377355
sg5
F3.111467972153151
sg6
I17
sg7
I318
sg8
S'Answer41.txt'
p2939
sa(dp2940
g4
F4.559322033898305
sg5
F2.6041485854558837
sg6
I50
sg7
I826
sg8
S'Answer42.txt'
p2941
sa(dp2942
g4
F4.469924812030075
sg5
F2.294369864920108
sg6
I38
sg7
I532
sg8
S'Answer43.txt'
p2943
sa(dp2944
g4
F5.405797101449275
sg5
F3.027979862183483
sg6
I34
sg7
I621
sg8
S'Answer44.txt'
p2945
sa(dp2946
g4
F4.644039735099338
sg5
F2.4149330345446405
sg6
I51
sg7
I604
sg8
S'Answer45.txt'
p2947
sa(dp2948
g4
F4.813084112149533
sg5
F2.796963778117753
sg6
I28
sg7
I535
sg8
S'Answer46.txt'
p2949
sa(dp2950
g4
F4.581239530988275
sg5
F2.457446851862132
sg6
I44
sg7
I597
sg8
S'Answer47.txt'
p2951
sa(dp2952
g4
F5.1502890173410405
sg5
F2.9038136696139807
sg6
I32
sg7
I519
sg8
S'Answer48.txt'
p2953
sa(dp2954
g4
F4.979661016949152
sg5
F2.966980983470733
sg6
I34
sg7
I590
sg8
S'Answer49.txt'
p2955
sa(dp2956
g4
F4.7217573221757325
sg5
F2.814336327098796
sg6
I26
sg7
I478
sg8
S'Answer50.txt'
p2957
sasS'Caroline-Zelonka'
p2958
(lp2959
(dp2960
g4
F4.418181818181818
sg5
F2.6607648188984325
sg6
I6
sg7
I110
sg8
S'Answer1.txt'
p2961
sa(dp2962
g4
F4.796875
sg5
F2.603161264253203
sg6
I7
sg7
I192
sg8
S'Answer2.txt'
p2963
sa(dp2964
g4
F4.241975308641975
sg5
F2.4955696149564823
sg6
I21
sg7
I405
sg8
S'Answer3.txt'
p2965
sa(dp2966
g4
F4.48936170212766
sg5
F2.758910827532842
sg6
I6
sg7
I141
sg8
S'Answer4.txt'
p2967
sa(dp2968
g4
F4.99009900990099
sg5
F2.6118353984531413
sg6
I9
sg7
I202
sg8
S'Answer5.txt'
p2969
sa(dp2970
g4
F5.083333333333333
sg5
F2.871072196158704
sg6
I15
sg7
I348
sg8
S'Answer6.txt'
p2971
sa(dp2972
g4
F4.605263157894737
sg5
F2.7623780575958663
sg6
I14
sg7
I342
sg8
S'Answer7.txt'
p2973
sa(dp2974
g4
F4.855140186915888
sg5
F2.738194153696606
sg6
I6
sg7
I214
sg8
S'Answer9.txt'
p2975
sa(dp2976
g4
F4.752688172043011
sg5
F2.7499986861326096
sg6
I5
sg7
I93
sg8
S'Answer10.txt'
p2977
sa(dp2978
g4
F4.991573033707865
sg5
F2.9418401330224566
sg6
I12
sg7
I356
sg8
S'Answer11.txt'
p2979
sa(dp2980
g4
F4.534435261707989
sg5
F2.5917433846698166
sg6
I13
sg7
I363
sg8
S'Answer12.txt'
p2981
sa(dp2982
g4
F4.961764705882353
sg5
F3.070975578453893
sg6
I15
sg7
I340
sg8
S'Answer13.txt'
p2983
sa(dp2984
g4
F5.336956521739131
sg5
F2.7751896680698813
sg6
I4
sg7
I92
sg8
S'Answer14.txt'
p2985
sa(dp2986
g4
F4.428571428571429
sg5
F2.5410908793553326
sg6
I8
sg7
I245
sg8
S'Answer15.txt'
p2987
sa(dp2988
g4
F4.867036011080333
sg5
F2.7558136626596417
sg6
I14
sg7
I361
sg8
S'Answer16.txt'
p2989
sa(dp2990
g4
F4.659606656580938
sg5
F2.7668918693796476
sg6
I27
sg7
I661
sg8
S'Answer17.txt'
p2991
sa(dp2992
g4
F4.929032258064516
sg5
F2.6374711187395445
sg6
I5
sg7
I155
sg8
S'Answer18.txt'
p2993
sa(dp2994
g4
F4.703470031545741
sg5
F2.6464226094202643
sg6
I16
sg7
I317
sg8
S'Answer19.txt'
p2995
sa(dp2996
g4
F5.092071611253197
sg5
F3.1013096078712294
sg6
I15
sg7
I391
sg8
S'Answer20.txt'
p2997
sa(dp2998
g4
F4.387387387387387
sg5
F2.439063367604923
sg6
I2
sg7
I111
sg8
S'Answer21.txt'
p2999
sa(dp3000
g4
F5.2032085561497325
sg5
F3.3513331012352077
sg6
I5
sg7
I187
sg8
S'Answer22.txt'
p3001
sa(dp3002
g4
F4.526946107784431
sg5
F2.5718754573954605
sg6
I19
sg7
I334
sg8
S'Answer23.txt'
p3003
sa(dp3004
g4
F4.459090909090909
sg5
F2.3708761500779127
sg6
I10
sg7
I220
sg8
S'Answer24.txt'
p3005
sa(dp3006
g4
F4.485049833887043
sg5
F2.5938738998162187
sg6
I11
sg7
I301
sg8
S'Answer25.txt'
p3007
sa(dp3008
g4
F4.264900662251655
sg5
F2.6462568509609654
sg6
I7
sg7
I151
sg8
S'Answer26.txt'
p3009
sa(dp3010
g4
F4.727731092436975
sg5
F2.7150041976459196
sg6
I23
sg7
I595
sg8
S'Answer27.txt'
p3011
sa(dp3012
g4
F4.563953488372093
sg5
F2.570286962112228
sg6
I4
sg7
I172
sg8
S'Answer28.txt'
p3013
sa(dp3014
g4
F4.742320819112628
sg5
F2.8090815801069726
sg6
I23
sg7
I586
sg8
S'Answer32.txt'
p3015
sag3014
a(dp3016
g4
F4.487288135593221
sg5
F2.740903185614203
sg6
I10
sg7
I236
sg8
S'Answer33.txt'
p3017
sa(dp3018
g4
F5.53125
sg5
F6.872655850360907
sg6
I9
sg7
I256
sg8
S'Answer35.txt'
p3019
sa(dp3020
g4
F5.075
sg5
F3.114381961160193
sg6
I8
sg7
I200
sg8
S'Answer36.txt'
p3021
sa(dp3022
g4
F5.311224489795919
sg5
F4.211267264139441
sg6
I5
sg7
I196
sg8
S'Answer37.txt'
p3023
sa(dp3024
g4
F4.4609375
sg5
F2.81985799661858
sg6
I4
sg7
I128
sg8
S'Answer38.txt'
p3025
sa(dp3026
g4
F4.951945080091533
sg5
F2.665136747442302
sg6
I12
sg7
I437
sg8
S'Answer40.txt'
p3027
sa(dp3028
g4
F4.6525423728813555
sg5
F2.6147467020729067
sg6
I18
sg7
I354
sg8
S'Answer41.txt'
p3029
sa(dp3030
g4
F4.384615384615385
sg5
F2.524566997978996
sg6
I5
sg7
I117
sg8
S'Answer42.txt'
p3031
sa(dp3032
g4
F4.431372549019608
sg5
F2.2945365798150155
sg6
I6
sg7
I153
sg8
S'Answer43.txt'
p3033
sa(dp3034
g4
F4.751231527093596
sg5
F2.893799377638473
sg6
I14
sg7
I406
sg8
S'Answer44.txt'
p3035
sa(dp3036
g4
F5.1
sg5
F3.026378283896676
sg6
I12
sg7
I580
sg8
S'Answer45.txt'
p3037
sa(dp3038
g4
F4.868913857677903
sg5
F2.8432270431319298
sg6
I15
sg7
I267
sg8
S'Answer46.txt'
p3039
sa(dp3040
g4
F4.442528735632184
sg5
F2.5963339398727543
sg6
I7
sg7
I174
sg8
S'Answer47.txt'
p3041
sa(dp3042
g4
F5.045515394912985
sg5
F3.130463625750319
sg6
I23
sg7
I747
sg8
S'Answer48.txt'
p3043
sa(dp3044
g4
F4.393939393939394
sg5
F2.5146768445847147
sg6
I9
sg7
I165
sg8
S'Answer49.txt'
p3045
sa(dp3046
g4
F4.4818181818181815
sg5
F2.5156425223539784
sg6
I12
sg7
I330
sg8
S'Answer50.txt'
p3047
sasS'Ankit-Sethi'
p3048
(lp3049
(dp3050
g4
F4.28421052631579
sg5
F2.6976135960462178
sg6
I3
sg7
I95
sg8
S'Answer1.txt'
p3051
sa(dp3052
g4
F5.178260869565217
sg5
F2.927895300120686
sg6
I8
sg7
I230
sg8
S'Answer2.txt'
p3053
sa(dp3054
g4
F4.502824858757062
sg5
F2.7856052376363385
sg6
I26
sg7
I885
sg8
S'Answer3.txt'
p3055
sa(dp3056
g4
F5.050251256281407
sg5
F2.7741606430691252
sg6
I5
sg7
I199
sg8
S'Answer4.txt'
p3057
sa(dp3058
g4
F4.267857142857143
sg5
F1.963879828195156
sg6
I3
sg7
I112
sg8
S'Answer5.txt'
p3059
sa(dp3060
g4
F5.386813186813187
sg5
F3.3531749360738736
sg6
I8
sg7
I455
sg8
S'Answer6.txt'
p3061
sag3060
a(dp3062
g4
F4.921428571428572
sg5
F2.888568249256408
sg6
I6
sg7
I140
sg8
S'Answer7.txt'
p3063
sa(dp3064
g4
F4.67037037037037
sg5
F2.6525061266120904
sg6
I4
sg7
I270
sg8
S'Answer8.txt'
p3065
sa(dp3066
g4
F4.8734567901234565
sg5
F2.6993436149991323
sg6
I12
sg7
I648
sg8
S'Answer10.txt'
p3067
sag3066
a(dp3068
g4
F4.605911330049261
sg5
F2.4318017265924117
sg6
I4
sg7
I203
sg8
S'Answer11.txt'
p3069
sa(dp3070
g4
F5.22972972972973
sg5
F2.9110567288023317
sg6
I7
sg7
I444
sg8
S'Answer12.txt'
p3071
sa(dp3072
g4
F5.070967741935484
sg5
F2.9372132445773684
sg6
I5
sg7
I310
sg8
S'Answer14.txt'
p3073
sa(dp3074
g4
F4.806666666666667
sg5
F2.8359517312927287
sg6
I6
sg7
I300
sg8
S'Answer15.txt'
p3075
sa(dp3076
g4
F5.420168067226891
sg5
F2.9661842004921413
sg6
I3
sg7
I119
sg8
S'Answer16.txt'
p3077
sa(dp3078
g4
F4.6947368421052635
sg5
F2.5618264491001956
sg6
I11
sg7
I285
sg8
S'Answer17.txt'
p3079
sa(dp3080
g4
F5.026315789473684
sg5
F2.9063165519738225
sg6
I5
sg7
I114
sg8
S'Answer18.txt'
p3081
sa(dp3082
g4
F4.560975609756097
sg5
F2.7031939598872614
sg6
I7
sg7
I164
sg8
S'Answer19.txt'
p3083
sa(dp3084
g4
F5.031496062992126
sg5
F2.7663245118934654
sg6
I4
sg7
I127
sg8
S'Answer21.txt'
p3085
sa(dp3086
g4
F4.875
sg5
F3.1290882349045677
sg6
I2
sg7
I88
sg8
S'Answer22.txt'
p3087
sa(dp3088
g4
F5.207142857142857
sg5
F3.2215711086616197
sg6
I16
sg7
I280
sg8
S'Answer23.txt'
p3089
sa(dp3090
g4
F5.067961165048544
sg5
F2.8114265318736162
sg6
I12
sg7
I515
sg8
S'Answer25.txt'
p3091
sa(dp3092
g4
F4.2846153846153845
sg5
F2.2265344419751916
sg6
I5
sg7
I130
sg8
S'Answer26.txt'
p3093
sa(dp3094
g4
F5.058461538461539
sg5
F2.824012001918944
sg6
I9
sg7
I325
sg8
S'Answer27.txt'
p3095
sa(dp3096
g4
F4.902654867256637
sg5
F2.6904110347213948
sg6
I2
sg7
I113
sg8
S'Answer28.txt'
p3097
sa(dp3098
g4
F5.129411764705883
sg5
F3.0823529411764707
sg6
I2
sg7
I85
sg8
S'Answer29.txt'
p3099
sa(dp3100
g4
F5.14453125
sg5
F3.4093462669217742
sg6
I5
sg7
I256
sg8
S'Answer32.txt'
p3101
sa(dp3102
g4
F4.793103448275862
sg5
F2.771521558263465
sg6
I2
sg7
I87
sg8
S'Answer34.txt'
p3103
sa(dp3104
g4
F5.429378531073446
sg5
F3.3626120056857642
sg6
I3
sg7
I177
sg8
S'Answer35.txt'
p3105
sa(dp3106
g4
F5.032128514056225
sg5
F2.8684287373464876
sg6
I10
sg7
I498
sg8
S'Answer36.txt'
p3107
sa(dp3108
g4
F4.092436974789916
sg5
F2.446027809397748
sg6
I3
sg7
I119
sg8
S'Answer38.txt'
p3109
sa(dp3110
g4
F4.787330316742081
sg5
F2.7390295577156674
sg6
I28
sg7
I884
sg8
S'Answer39.txt'
p3111
sag3110
a(dp3112
g4
F5.0
sg5
F2.919017156000422
sg6
I5
sg7
I242
sg8
S'Answer41.txt'
p3113
sa(dp3114
g4
F5.265151515151516
sg5
F3.410900193285976
sg6
I2
sg7
I132
sg8
S'Answer42.txt'
p3115
sa(dp3116
g4
F4.552083333333333
sg5
F2.893490509123694
sg6
I1
sg7
I96
sg8
S'Answer43.txt'
p3117
sa(dp3118
g4
F4.828571428571428
sg5
F2.70698265639823
sg6
I5
sg7
I140
sg8
S'Answer44.txt'
p3119
sa(dp3120
g4
F4.613508442776736
sg5
F2.65402902297748
sg6
I16
sg7
I533
sg8
S'Answer45.txt'
p3121
sa(dp3122
g4
F5.191056910569106
sg5
F2.98507147794965
sg6
I7
sg7
I246
sg8
S'Answer46.txt'
p3123
sa(dp3124
g4
F4.968085106382978
sg5
F2.96594905215699
sg6
I2
sg7
I94
sg8
S'Answer47.txt'
p3125
sa(dp3126
g4
F4.783950617283951
sg5
F2.8124922733555753
sg6
I2
sg7
I162
sg8
S'Answer50.txt'
p3127
sasS'Gabriel-Seah'
p3128
(lp3129
(dp3130
g4
F4.666666666666667
sg5
F2.5320499498608595
sg6
I2
sg7
I201
sg8
S'Answer3.txt'
p3131
sa(dp3132
g4
F5.318910256410256
sg5
F3.1783363398768847
sg6
I6
sg7
I624
sg8
S'Answer4.txt'
p3133
sa(dp3134
g4
F5.023709902370991
sg5
F3.1795627296135653
sg6
I10
sg7
I717
sg8
S'Answer5.txt'
p3135
sag3134
a(dp3136
g4
F5.318181818181818
sg5
F2.9137037291886076
sg6
I1
sg7
I132
sg8
S'Answer7.txt'
p3137
sa(dp3138
g4
F6.304635761589404
sg5
F3.8874792688843836
sg6
I4
sg7
I151
sg8
S'Answer8.txt'
p3139
sa(dp3140
g4
F5.2
sg5
F3.2866556350122695
sg6
I2
sg7
I190
sg8
S'Answer9.txt'
p3141
sa(dp3142
g4
F4.806338028169014
sg5
F3.088112482186869
sg6
I8
sg7
I284
sg8
S'Answer10.txt'
p3143
sa(dp3144
g4
F5.412903225806452
sg5
F3.2364598277193575
sg6
I13
sg7
I155
sg8
S'Answer11.txt'
p3145
sa(dp3146
g4
F5.21865889212828
sg5
F3.3791508685023506
sg6
I13
sg7
I686
sg8
S'Answer13.txt'
p3147
sag3146
a(dp3148
g4
F5.266666666666667
sg5
F2.8
sg6
I1
sg7
I90
sg8
S'Answer14.txt'
p3149
sa(dp3150
g4
F4.711111111111111
sg5
F3.0267123507728626
sg6
I7
sg7
I450
sg8
S'Answer15.txt'
p3151
sa(dp3152
g4
F4.811881188118812
sg5
F2.900026873508567
sg6
I8
sg7
I303
sg8
S'Answer16.txt'
p3153
sa(dp3154
g4
F5.475
sg5
F3.445921502298041
sg6
I2
sg7
I80
sg8
S'Answer17.txt'
p3155
sa(dp3156
g4
F4.565693430656935
sg5
F2.5895054330445153
sg6
I3
sg7
I274
sg8
S'Answer19.txt'
p3157
sa(dp3158
g4
F5.207920792079208
sg5
F3.0700840068160438
sg6
I2
sg7
I303
sg8
S'Answer20.txt'
p3159
sa(dp3160
g4
F5.2727272727272725
sg5
F3.1368393724977643
sg6
I5
sg7
I396
sg8
S'Answer21.txt'
p3161
sa(dp3162
g4
F5.123809523809523
sg5
F3.016447731372082
sg6
I3
sg7
I210
sg8
S'Answer22.txt'
p3163
sa(dp3164
g4
F5.215447154471545
sg5
F3.266970265973057
sg6
I3
sg7
I246
sg8
S'Answer26.txt'
p3165
sa(dp3166
g4
F5.315789473684211
sg5
F3.163153516066678
sg6
I3
sg7
I133
sg8
S'Answer27.txt'
p3167
sa(dp3168
g4
F4.395833333333333
sg5
F2.7290076289539553
sg6
I2
sg7
I96
sg8
S'Answer28.txt'
p3169
sa(dp3170
g4
F5.145631067961165
sg5
F2.5252425318118803
sg6
I3
sg7
I103
sg8
S'Answer29.txt'
p3171
sa(dp3172
g4
F5.1020408163265305
sg5
F2.8229735224649395
sg6
I2
sg7
I98
sg8
S'Answer31.txt'
p3173
sa(dp3174
g4
F4.495238095238095
sg5
F2.8739347824519
sg6
I1
sg7
I210
sg8
S'Answer32.txt'
p3175
sa(dp3176
g4
F4.494791666666667
sg5
F2.8449469016598345
sg6
I1
sg7
I192
sg8
S'Answer33.txt'
p3177
sa(dp3178
g4
F5.492201039861352
sg5
F3.6058432514513385
sg6
I9
sg7
I577
sg8
S'Answer35.txt'
p3179
sa(dp3180
g4
F5.627737226277373
sg5
F4.086665692920635
sg6
I4
sg7
I137
sg8
S'Answer36.txt'
p3181
sa(dp3182
g4
F5.358139534883721
sg5
F3.325324433071334
sg6
I4
sg7
I215
sg8
S'Answer37.txt'
p3183
sa(dp3184
g4
F5.141791044776119
sg5
F3.0472718042332607
sg6
I7
sg7
I268
sg8
S'Answer39.txt'
p3185
sa(dp3186
g4
F5.068862275449102
sg5
F3.063409790397975
sg6
I13
sg7
I668
sg8
S'Answer40.txt'
p3187
sag3186
a(dp3188
g4
F5.466101694915254
sg5
F3.578850784652902
sg6
I3
sg7
I118
sg8
S'Answer42.txt'
p3189
sa(dp3190
g4
F4.854838709677419
sg5
F2.632592088231234
sg6
I1
sg7
I124
sg8
S'Answer43.txt'
p3191
sa(dp3192
g4
F4.5588235294117645
sg5
F2.699213863083483
sg6
I1
sg7
I102
sg8
S'Answer44.txt'
p3193
sa(dp3194
g4
F4.995744680851064
sg5
F3.6860840922057267
sg6
I4
sg7
I235
sg8
S'Answer46.txt'
p3195
sa(dp3196
g4
F5.359223300970874
sg5
F3.04769328315612
sg6
I4
sg7
I206
sg8
S'Answer47.txt'
p3197
sa(dp3198
g4
F5.947712418300654
sg5
F3.637658604988529
sg6
I4
sg7
I306
sg8
S'Answer48.txt'
p3199
sa(dp3200
g4
F5.571428571428571
sg5
F3.704783048938649
sg6
I2
sg7
I77
sg8
S'Answer49.txt'
p3201
sa(dp3202
g4
F5.514925373134329
sg5
F3.328943794280047
sg6
I8
sg7
I536
sg8
S'Answer50.txt'
p3203
sasS'Tamara-Wiens'
p3204
(lp3205
(dp3206
g4
F4.367816091954023
sg5
F2.782464008485104
sg6
I13
sg7
I261
sg8
S'Answer1.txt'
p3207
sa(dp3208
g4
F5.065934065934066
sg5
F2.740827651537564
sg6
I2
sg7
I91
sg8
S'Answer3.txt'
p3209
sa(dp3210
g4
F5.164021164021164
sg5
F3.2349900385961936
sg6
I6
sg7
I189
sg8
S'Answer6.txt'
p3211
sa(dp3212
g4
F4.344827586206897
sg5
F2.488260188038407
sg6
I4
sg7
I116
sg8
S'Answer7.txt'
p3213
sa(dp3214
g4
F4.871559633027523
sg5
F3.0533510465415503
sg6
I4
sg7
I109
sg8
S'Answer8.txt'
p3215
sa(dp3216
g4
F4.177142857142857
sg5
F2.35615736974855
sg6
I5
sg7
I175
sg8
S'Answer9.txt'
p3217
sa(dp3218
g4
F4.856948228882834
sg5
F2.8485809756748073
sg6
I18
sg7
I734
sg8
S'Answer10.txt'
p3219
sa(dp3220
g4
F4.83
sg5
F2.905357120906138
sg6
I6
sg7
I200
sg8
S'Answer11.txt'
p3221
sa(dp3222
g4
F4.8396946564885495
sg5
F2.9520772706873464
sg6
I2
sg7
I131
sg8
S'Answer12.txt'
p3223
sa(dp3224
g4
F4.186915887850467
sg5
F2.5944975604259075
sg6
I4
sg7
I107
sg8
S'Answer13.txt'
p3225
sa(dp3226
g4
F4.722222222222222
sg5
F3.1522576663499016
sg6
I5
sg7
I144
sg8
S'Answer14.txt'
p3227
sa(dp3228
g4
F4.74914089347079
sg5
F2.7890848153644927
sg6
I18
sg7
I582
sg8
S'Answer15.txt'
p3229
sa(dp3230
g4
F4.923611111111111
sg5
F3.0163440460797877
sg6
I4
sg7
I144
sg8
S'Answer16.txt'
p3231
sa(dp3232
g4
F5.47191011235955
sg5
F3.1803112265214213
sg6
I3
sg7
I89
sg8
S'Answer17.txt'
p3233
sa(dp3234
g4
F4.294642857142857
sg5
F2.362800974241704
sg6
I3
sg7
I112
sg8
S'Answer18.txt'
p3235
sa(dp3236
g4
F4.837837837837838
sg5
F2.960826949680727
sg6
I5
sg7
I111
sg8
S'Answer19.txt'
p3237
sa(dp3238
g4
F4.972727272727273
sg5
F2.8266880424369787
sg6
I4
sg7
I110
sg8
S'Answer21.txt'
p3239
sa(dp3240
g4
F4.612903225806452
sg5
F3.3952283343315344
sg6
I6
sg7
I248
sg8
S'Answer23.txt'
p3241
sa(dp3242
g4
F4.716981132075472
sg5
F2.8376003580660956
sg6
I2
sg7
I106
sg8
S'Answer26.txt'
p3243
sa(dp3244
g4
F4.131578947368421
sg5
F2.508627771591252
sg6
I5
sg7
I190
sg8
S'Answer28.txt'
p3245
sa(dp3246
g4
F4.624113475177305
sg5
F2.67517880914197
sg6
I3
sg7
I141
sg8
S'Answer30.txt'
p3247
sa(dp3248
g4
F4.320712694877505
sg5
F2.732228412460541
sg6
I11
sg7
I449
sg8
S'Answer31.txt'
p3249
sa(dp3250
g4
F5.251612903225807
sg5
F2.859265749165271
sg6
I7
sg7
I155
sg8
S'Answer32.txt'
p3251
sa(dp3252
g4
F4.918032786885246
sg5
F3.0762358055203562
sg6
I8
sg7
I183
sg8
S'Answer33.txt'
p3253
sa(dp3254
g4
F4.59433962264151
sg5
F2.50576054016669
sg6
I5
sg7
I106
sg8
S'Answer34.txt'
p3255
sa(dp3256
g4
F4.775700934579439
sg5
F2.9140600549779037
sg6
I6
sg7
I107
sg8
S'Answer35.txt'
p3257
sa(dp3258
g4
F4.4411764705882355
sg5
F2.5940109355135763
sg6
I8
sg7
I170
sg8
S'Answer37.txt'
p3259
sa(dp3260
g4
F4.814569536423841
sg5
F2.653010219599075
sg6
I8
sg7
I151
sg8
S'Answer38.txt'
p3261
sa(dp3262
g4
F4.057377049180328
sg5
F2.3619219054283107
sg6
I5
sg7
I244
sg8
S'Answer39.txt'
p3263
sa(dp3264
g4
F5.588709677419355
sg5
F3.3757008753122313
sg6
I11
sg7
I248
sg8
S'Answer41.txt'
p3265
sa(dp3266
g4
F4.802469135802469
sg5
F2.7618197306044507
sg6
I6
sg7
I162
sg8
S'Answer42.txt'
p3267
sa(dp3268
g4
F4.328859060402684
sg5
F2.1657583975392702
sg6
I5
sg7
I149
sg8
S'Answer43.txt'
p3269
sa(dp3270
g4
F4.5759312320916905
sg5
F2.5577780821122844
sg6
I6
sg7
I349
sg8
S'Answer44.txt'
p3271
sa(dp3272
g4
F4.901960784313726
sg5
F3.1616033757842716
sg6
I14
sg7
I561
sg8
S'Answer46.txt'
p3273
sa(dp3274
g4
F4.924198250728863
sg5
F2.644113961786134
sg6
I13
sg7
I343
sg8
S'Answer47.txt'
p3275
sa(dp3276
g4
F5.266009852216749
sg5
F3.020158437089786
sg6
I5
sg7
I203
sg8
S'Answer48.txt'
p3277
sa(dp3278
g4
F4.94475138121547
sg5
F2.906886008111695
sg6
I8
sg7
I362
sg8
S'Answer49.txt'
p3279
sa(dp3280
g4
F4.872549019607843
sg5
F3.1017754834220153
sg6
I5
sg7
I204
sg8
S'Answer50.txt'
p3281
sasS'Joshua-Engel'
p3282
(lp3283
(dp3284
g4
F4.173469387755102
sg5
F2.527503851322614
sg6
I5
sg7
I98
sg8
S'Answer1.txt'
p3285
sa(dp3286
g4
F5.043478260869565
sg5
F3.042857079464815
sg6
I6
sg7
I138
sg8
S'Answer2.txt'
p3287
sa(dp3288
g4
F5.298642533936651
sg5
F3.1739106106703314
sg6
I12
sg7
I221
sg8
S'Answer3.txt'
p3289
sa(dp3290
g4
F4.405286343612334
sg5
F2.5175276806528166
sg6
I18
sg7
I227
sg8
S'Answer6.txt'
p3291
sa(dp3292
g4
F5.611940298507463
sg5
F3.0097117622719503
sg6
I7
sg7
I134
sg8
S'Answer7.txt'
p3293
sa(dp3294
g4
F4.515625
sg5
F2.378235871265716
sg6
I8
sg7
I128
sg8
S'Answer9.txt'
p3295
sa(dp3296
g4
F5.2226277372262775
sg5
F3.2552146307236653
sg6
I15
sg7
I274
sg8
S'Answer10.txt'
p3297
sa(dp3298
g4
F5.134751773049645
sg5
F2.9239045549033906
sg6
I13
sg7
I282
sg8
S'Answer11.txt'
p3299
sa(dp3300
g4
F5.127167630057803
sg5
F2.83475775248129
sg6
I18
sg7
I346
sg8
S'Answer14.txt'
p3301
sa(dp3302
g4
F5.056910569105691
sg5
F2.554450326719412
sg6
I5
sg7
I123
sg8
S'Answer15.txt'
p3303
sa(dp3304
g4
F4.880149812734082
sg5
F2.7696622882653594
sg6
I13
sg7
I267
sg8
S'Answer16.txt'
p3305
sa(dp3306
g4
F4.636363636363637
sg5
F6.1475932107517375
sg6
I6
sg7
I187
sg8
S'Answer17.txt'
p3307
sa(dp3308
g4
F5.049019607843137
sg5
F3.1040057957432508
sg6
I6
sg7
I102
sg8
S'Answer18.txt'
p3309
sa(dp3310
g4
F4.93812375249501
sg5
F2.681749449972874
sg6
I25
sg7
I501
sg8
S'Answer19.txt'
p3311
sa(dp3312
g4
F5.648
sg5
F2.937362081868695
sg6
I13
sg7
I250
sg8
S'Answer20.txt'
p3313
sa(dp3314
g4
F4.8046875
sg5
F2.8697195903683257
sg6
I17
sg7
I384
sg8
S'Answer21.txt'
p3315
sa(dp3316
g4
F5.480916030534351
sg5
F2.8973563760863748
sg6
I4
sg7
I262
sg8
S'Answer22.txt'
p3317
sa(dp3318
g4
F4.851528384279476
sg5
F2.299565143118935
sg6
I13
sg7
I229
sg8
S'Answer23.txt'
p3319
sa(dp3320
g4
F4.5055555555555555
sg5
F2.3213913984271057
sg6
I17
sg7
I360
sg8
S'Answer24.txt'
p3321
sa(dp3322
g4
F4.77319587628866
sg5
F2.837543422218008
sg6
I6
sg7
I97
sg8
S'Answer25.txt'
p3323
sa(dp3324
g4
F4.938461538461539
sg5
F2.7477371001603537
sg6
I9
sg7
I130
sg8
S'Answer26.txt'
p3325
sa(dp3326
g4
F5.36697247706422
sg5
F4.44675028327556
sg6
I5
sg7
I109
sg8
S'Answer27.txt'
p3327
sa(dp3328
g4
F5.008219178082192
sg5
F2.73234073090623
sg6
I18
sg7
I365
sg8
S'Answer28.txt'
p3329
sa(dp3330
g4
F4.574324324324325
sg5
F2.6637994005114356
sg6
I15
sg7
I296
sg8
S'Answer29.txt'
p3331
sa(dp3332
g4
F4.841379310344828
sg5
F2.961071246202829
sg6
I5
sg7
I145
sg8
S'Answer30.txt'
p3333
sa(dp3334
g4
F4.9058295964125564
sg5
F2.609934814852428
sg6
I7
sg7
I223
sg8
S'Answer31.txt'
p3335
sa(dp3336
g4
F5.663438256658596
sg5
F3.401401903572413
sg6
I16
sg7
I413
sg8
S'Answer33.txt'
p3337
sa(dp3338
g4
F5.035460992907802
sg5
F3.0045151542816746
sg6
I5
sg7
I141
sg8
S'Answer34.txt'
p3339
sa(dp3340
g4
F5.086956521739131
sg5
F3.097567276973452
sg6
I5
sg7
I161
sg8
S'Answer35.txt'
p3341
sa(dp3342
g4
F4.966257668711656
sg5
F2.842830199109472
sg6
I10
sg7
I326
sg8
S'Answer36.txt'
p3343
sa(dp3344
g4
F4.925
sg5
F2.9844388082183904
sg6
I9
sg7
I160
sg8
S'Answer37.txt'
p3345
sa(dp3346
g4
F4.422077922077922
sg5
F2.4489130043795053
sg6
I7
sg7
I154
sg8
S'Answer38.txt'
p3347
sa(dp3348
g4
F5.257309941520468
sg5
F3.04803489812593
sg6
I8
sg7
I171
sg8
S'Answer39.txt'
p3349
sa(dp3350
g4
F5.0
sg5
F2.8699065553365384
sg6
I11
sg7
I220
sg8
S'Answer40.txt'
p3351
sa(dp3352
g4
F4.916387959866221
sg5
F2.7241700887113525
sg6
I17
sg7
I299
sg8
S'Answer41.txt'
p3353
sa(dp3354
g4
F4.438848920863309
sg5
F2.4498277957794614
sg6
I6
sg7
I139
sg8
S'Answer42.txt'
p3355
sa(dp3356
g4
F4.825396825396825
sg5
F2.6178448416620053
sg6
I22
sg7
I378
sg8
S'Answer43.txt'
p3357
sa(dp3358
g4
F4.658986175115207
sg5
F2.3640597910504315
sg6
I10
sg7
I217
sg8
S'Answer44.txt'
p3359
sa(dp3360
g4
F4.654589371980676
sg5
F2.64648444239682
sg6
I21
sg7
I414
sg8
S'Answer45.txt'
p3361
sa(dp3362
g4
F4.837301587301587
sg5
F2.54820927247875
sg6
I12
sg7
I252
sg8
S'Answer46.txt'
p3363
sa(dp3364
g4
F4.927835051546392
sg5
F2.356160701468073
sg6
I5
sg7
I97
sg8
S'Answer47.txt'
p3365
sa(dp3366
g4
F4.357682619647355
sg5
F2.539962250066606
sg6
I23
sg7
I397
sg8
S'Answer50.txt'
p3367
sasS'Antariksh-Bothale'
p3368
(lp3369
(dp3370
g4
F4.820838627700127
sg5
F2.773476262753684
sg6
I25
sg7
I787
sg8
S'Answer1.txt'
p3371
sa(dp3372
g4
F4.661538461538462
sg5
F2.603411507866157
sg6
I5
sg7
I130
sg8
S'Answer2.txt'
p3373
sa(dp3374
g4
F4.785407725321888
sg5
F3.6353476767368162
sg6
I7
sg7
I233
sg8
S'Answer3.txt'
p3375
sa(dp3376
g4
F4.817518248175182
sg5
F2.7558007251120884
sg6
I10
sg7
I274
sg8
S'Answer4.txt'
p3377
sa(dp3378
g4
F4.395348837209302
sg5
F2.4253781121383398
sg6
I6
sg7
I129
sg8
S'Answer5.txt'
p3379
sa(dp3380
g4
F4.779569892473118
sg5
F2.505866627923959
sg6
I6
sg7
I186
sg8
S'Answer6.txt'
p3381
sa(dp3382
g4
F4.80672268907563
sg5
F3.0397293967476045
sg6
I17
sg7
I238
sg8
S'Answer7.txt'
p3383
sa(dp3384
g4
F4.717171717171717
sg5
F3.002940435652279
sg6
I12
sg7
I297
sg8
S'Answer8.txt'
p3385
sa(dp3386
g4
F4.883720930232558
sg5
F2.9530828716846123
sg6
I20
sg7
I602
sg8
S'Answer9.txt'
p3387
sag3386
a(dp3388
g4
F5.023696682464455
sg5
F3.034463588993511
sg6
I13
sg7
I422
sg8
S'Answer10.txt'
p3389
sa(dp3390
g4
F5.261363636363637
sg5
F3.2245306853084634
sg6
I5
sg7
I88
sg8
S'Answer12.txt'
p3391
sa(dp3392
g4
F4.9907407407407405
sg5
F4.579534527475492
sg6
I4
sg7
I108
sg8
S'Answer13.txt'
p3393
sa(dp3394
g4
F4.85243328100471
sg5
F2.7410848006731006
sg6
I24
sg7
I637
sg8
S'Answer14.txt'
p3395
sa(dp3396
g4
F4.594059405940594
sg5
F2.5711456185619825
sg6
I7
sg7
I303
sg8
S'Answer15.txt'
p3397
sa(dp3398
g4
F4.7684630738522955
sg5
F2.864589270690343
sg6
I21
sg7
I501
sg8
S'Answer16.txt'
p3399
sa(dp3400
g4
F4.944444444444445
sg5
F2.9054015255539767
sg6
I5
sg7
I180
sg8
S'Answer18.txt'
p3401
sa(dp3402
g4
F5.010512483574244
sg5
F2.7815602453178983
sg6
I17
sg7
I761
sg8
S'Answer19.txt'
p3403
sa(dp3404
g4
F4.822410147991543
sg5
F2.9380792406928804
sg6
I21
sg7
I473
sg8
S'Answer20.txt'
p3405
sa(dp3406
g4
F4.803846153846154
sg5
F2.9671251003196257
sg6
I8
sg7
I260
sg8
S'Answer22.txt'
p3407
sa(dp3408
g4
F5.1246290801186944
sg5
F3.0596277864791475
sg6
I13
sg7
I337
sg8
S'Answer24.txt'
p3409
sa(dp3410
g4
F4.932098765432099
sg5
F2.669273131767108
sg6
I16
sg7
I324
sg8
S'Answer25.txt'
p3411
sa(dp3412
g4
F4.376623376623376
sg5
F2.8278406904754942
sg6
I16
sg7
I462
sg8
S'Answer26.txt'
p3413
sa(dp3414
g4
F4.975609756097561
sg5
F2.8901667170922423
sg6
I5
sg7
I164
sg8
S'Answer27.txt'
p3415
sa(dp3416
g4
F5.267326732673268
sg5
F3.587357032329538
sg6
I4
sg7
I101
sg8
S'Answer28.txt'
p3417
sa(dp3418
g4
F4.6566716641679164
sg5
F2.912100024615396
sg6
I23
sg7
I667
sg8
S'Answer29.txt'
p3419
sa(dp3420
g4
F4.665529010238908
sg5
F2.72719951811666
sg6
I9
sg7
I293
sg8
S'Answer30.txt'
p3421
sa(dp3422
g4
F4.781045751633987
sg5
F3.106671119116287
sg6
I16
sg7
I612
sg8
S'Answer32.txt'
p3423
sa(dp3424
g4
F5.112068965517241
sg5
F3.388888753522239
sg6
I14
sg7
I348
sg8
S'Answer33.txt'
p3425
sa(dp3426
g4
F4.725316455696203
sg5
F2.96635002904117
sg6
I17
sg7
I790
sg8
S'Answer34.txt'
p3427
sa(dp3428
g4
F4.976863753213368
sg5
F2.930993748575281
sg6
I34
sg7
I778
sg8
S'Answer35.txt'
p3429
sa(dp3430
g4
F4.904081632653061
sg5
F3.068766898780433
sg6
I17
sg7
I490
sg8
S'Answer36.txt'
p3431
sa(dp3432
g4
F4.59375
sg5
F2.656951778953058
sg6
I8
sg7
I352
sg8
S'Answer37.txt'
p3433
sa(dp3434
g4
F5.0843373493975905
sg5
F3.0195008202456957
sg6
I22
sg7
I498
sg8
S'Answer38.txt'
p3435
sa(dp3436
g4
F4.562666666666667
sg5
F2.7169970351269934
sg6
I9
sg7
I375
sg8
S'Answer39.txt'
p3437
sa(dp3438
g4
F4.854251012145749
sg5
F2.8284889384942873
sg6
I26
sg7
I741
sg8
S'Answer41.txt'
p3439
sag3438
a(dp3440
g4
F5.146586345381526
sg5
F2.8363316984423155
sg6
I19
sg7
I498
sg8
S'Answer42.txt'
p3441
sa(dp3442
g4
F5.106508875739645
sg5
F3.2133991295663176
sg6
I14
sg7
I338
sg8
S'Answer43.txt'
p3443
sa(dp3444
g4
F4.55119825708061
sg5
F2.7651530787515863
sg6
I20
sg7
I459
sg8
S'Answer44.txt'
p3445
sa(dp3446
g4
F4.6015625
sg5
F2.8867689652263047
sg6
I8
sg7
I128
sg8
S'Answer45.txt'
p3447
sa(dp3448
g4
F5.2664092664092665
sg5
F3.23865275425088
sg6
I6
sg7
I259
sg8
S'Answer46.txt'
p3449
sa(dp3450
g4
F4.731203007518797
sg5
F3.0609602251811996
sg6
I20
sg7
I532
sg8
S'Answer47.txt'
p3451
sa(dp3452
g4
F5.436781609195402
sg5
F3.7407392146266605
sg6
I1
sg7
I87
sg8
S'Answer49.txt'
p3453
sa(dp3454
g4
F4.292011019283747
sg5
F2.5942545291204646
sg6
I13
sg7
I363
sg8
S'Answer50.txt'
p3455
sasS'Vidushi-Rastogi-1'
p3456
(lp3457
(dp3458
g4
F5.287128712871287
sg5
F3.3723882704693624
sg6
I3
sg7
I101
sg8
S'Answer3.txt'
p3459
sa(dp3460
g4
F4.663366336633663
sg5
F2.8779710527816214
sg6
I6
sg7
I101
sg8
S'Answer5.txt'
p3461
sa(dp3462
g4
F4.928934010152284
sg5
F2.7603106903608614
sg6
I14
sg7
I197
sg8
S'Answer6.txt'
p3463
sa(dp3464
g4
F4.86013986013986
sg5
F2.8691788708664627
sg6
I8
sg7
I143
sg8
S'Answer10.txt'
p3465
sa(dp3466
g4
F4.959247648902822
sg5
F2.769329456901865
sg6
I18
sg7
I319
sg8
S'Answer11.txt'
p3467
sa(dp3468
g4
F4.549019607843137
sg5
F2.686668069066407
sg6
I17
sg7
I204
sg8
S'Answer12.txt'
p3469
sa(dp3470
g4
F4.697368421052632
sg5
F2.786337611510595
sg6
I11
sg7
I304
sg8
S'Answer14.txt'
p3471
sa(dp3472
g4
F5.0754716981132075
sg5
F3.1273739054990677
sg6
I11
sg7
I159
sg8
S'Answer17.txt'
p3473
sa(dp3474
g4
F5.022421524663677
sg5
F2.890286727111663
sg6
I11
sg7
I223
sg8
S'Answer18.txt'
p3475
sa(dp3476
g4
F6.002024291497976
sg5
F3.830676829369697
sg6
I30
sg7
I494
sg8
S'Answer19.txt'
p3477
sa(dp3478
g4
F4.613207547169812
sg5
F2.6513462394512866
sg6
I5
sg7
I212
sg8
S'Answer21.txt'
p3479
sa(dp3480
g4
F4.923444976076555
sg5
F2.798474567058773
sg6
I13
sg7
I209
sg8
S'Answer23.txt'
p3481
sa(dp3482
g4
F5.013986013986014
sg5
F2.4120502087632003
sg6
I9
sg7
I143
sg8
S'Answer25.txt'
p3483
sa(dp3484
g4
F5.0510948905109485
sg5
F3.265214064775234
sg6
I4
sg7
I137
sg8
S'Answer26.txt'
p3485
sa(dp3486
g4
F4.611940298507463
sg5
F2.8176163519690713
sg6
I7
sg7
I134
sg8
S'Answer28.txt'
p3487
sa(dp3488
g4
F5.239583333333333
sg5
F3.2969202537705127
sg6
I2
sg7
I96
sg8
S'Answer30.txt'
p3489
sa(dp3490
g4
F5.038095238095238
sg5
F4.065941721934515
sg6
I3
sg7
I105
sg8
S'Answer32.txt'
p3491
sa(dp3492
g4
F4.843575418994414
sg5
F3.1935865476933722
sg6
I6
sg7
I179
sg8
S'Answer37.txt'
p3493
sa(dp3494
g4
F4.615853658536586
sg5
F3.1803500924098733
sg6
I8
sg7
I164
sg8
S'Answer39.txt'
p3495
sa(dp3496
g4
F4.019230769230769
sg5
F2.511438329962952
sg6
I4
sg7
I104
sg8
S'Answer40.txt'
p3497
sa(dp3498
g4
F4.738738738738738
sg5
F2.761419245072698
sg6
I10
sg7
I222
sg8
S'Answer45.txt'
p3499
sa(dp3500
g4
F4.576271186440678
sg5
F2.493404111260578
sg6
I20
sg7
I295
sg8
S'Answer46.txt'
p3501
sa(dp3502
g4
F5.577319587628866
sg5
F2.575999662012496
sg6
I2
sg7
I97
sg8
S'Answer47.txt'
p3503
sa(dp3504
g4
F5.322916666666667
sg5
F3.3711236741461876
sg6
I6
sg7
I96
sg8
S'Answer48.txt'
p3505
sa(dp3506
g4
F4.996987951807229
sg5
F2.7989870090736897
sg6
I23
sg7
I332
sg8
S'Answer49.txt'
p3507
sa(dp3508
g4
F5.178970917225951
sg5
F3.2985938047355354
sg6
I23
sg7
I447
sg8
S'Answer50.txt'
p3509
sasS'Dan-Knight-1'
p3510
(lp3511
(dp3512
g4
F5.1390532544378695
sg5
F3.57028519614041
sg6
I14
sg7
I338
sg8
S'Answer1.txt'
p3513
sa(dp3514
g4
F4.821596244131455
sg5
F3.294055434851275
sg6
I12
sg7
I213
sg8
S'Answer3.txt'
p3515
sa(dp3516
g4
F4.824324324324325
sg5
F2.8720058036597322
sg6
I11
sg7
I444
sg8
S'Answer4.txt'
p3517
sa(dp3518
g4
F4.31264367816092
sg5
F2.482805448685669
sg6
I24
sg7
I435
sg8
S'Answer5.txt'
p3519
sa(dp3520
g4
F4.902061855670103
sg5
F3.1859381560724325
sg6
I9
sg7
I194
sg8
S'Answer6.txt'
p3521
sa(dp3522
g4
F4.203389830508475
sg5
F2.4191103832978302
sg6
I23
sg7
I413
sg8
S'Answer7.txt'
p3523
sa(dp3524
g4
F4.525252525252525
sg5
F2.6572184933528127
sg6
I35
sg7
I594
sg8
S'Answer8.txt'
p3525
sag3524
a(dp3526
g4
F5.4361702127659575
sg5
F6.323812663996735
sg6
I5
sg7
I94
sg8
S'Answer9.txt'
p3527
sa(dp3528
g4
F4.914590747330961
sg5
F3.4651031925475695
sg6
I16
sg7
I281
sg8
S'Answer11.txt'
p3529
sa(dp3530
g4
F7.32258064516129
sg5
F13.450955348668863
sg6
I3
sg7
I62
sg8
S'Answer12.txt'
p3531
sa(dp3532
g4
F4.3842592592592595
sg5
F2.5811877124414466
sg6
I6
sg7
I216
sg8
S'Answer13.txt'
p3533
sa(dp3534
g4
F4.945544554455446
sg5
F2.6777419463389704
sg6
I3
sg7
I202
sg8
S'Answer14.txt'
p3535
sa(dp3536
g4
F5.059233449477352
sg5
F2.9596549799856087
sg6
I6
sg7
I287
sg8
S'Answer16.txt'
p3537
sa(dp3538
g4
F4.7073170731707314
sg5
F2.9321090589558456
sg6
I6
sg7
I205
sg8
S'Answer17.txt'
p3539
sa(dp3540
g4
F5.218487394957983
sg5
F4.262716346791382
sg6
I6
sg7
I119
sg8
S'Answer19.txt'
p3541
sa(dp3542
g4
F4.577464788732394
sg5
F2.62255639089192
sg6
I9
sg7
I142
sg8
S'Answer20.txt'
p3543
sa(dp3544
g4
F4.645089285714286
sg5
F2.752664778879765
sg6
I61
sg7
I896
sg8
S'Answer21.txt'
p3545
sag3544
a(dp3546
g4
F5.5141065830721
sg5
F3.7196784674035688
sg6
I10
sg7
I319
sg8
S'Answer23.txt'
p3547
sa(dp3548
g4
F5.301020408163265
sg5
F3.164890135693822
sg6
I4
sg7
I196
sg8
S'Answer24.txt'
p3549
sa(dp3550
g4
F5.081521739130435
sg5
F3.994409934870017
sg6
I7
sg7
I184
sg8
S'Answer25.txt'
p3551
sa(dp3552
g4
F4.790178571428571
sg5
F2.807148394896392
sg6
I13
sg7
I224
sg8
S'Answer26.txt'
p3553
sa(dp3554
g4
F4.732327992459943
sg5
F2.585025599761413
sg6
I48
sg7
I1061
sg8
S'Answer27.txt'
p3555
sag3554
a(dp3556
g4
F4.680327868852459
sg5
F2.949165227065138
sg6
I43
sg7
I854
sg8
S'Answer28.txt'
p3557
sa(dp3558
g4
F5.228813559322034
sg5
F3.4699949126840854
sg6
I1
sg7
I118
sg8
S'Answer29.txt'
p3559
sa(dp3560
g4
F5.294573643410852
sg5
F4.096516010327706
sg6
I5
sg7
I129
sg8
S'Answer30.txt'
p3561
sa(dp3562
g4
F5.5777777777777775
sg5
F4.266087923711784
sg6
I8
sg7
I180
sg8
S'Answer31.txt'
p3563
sa(dp3564
g4
F4.803108808290156
sg5
F3.691832558636765
sg6
I9
sg7
I193
sg8
S'Answer32.txt'
p3565
sa(dp3566
g4
F4.548672566371682
sg5
F2.513648233436768
sg6
I12
sg7
I113
sg8
S'Answer36.txt'
p3567
sa(dp3568
g4
F6.019748653500898
sg5
F7.0222501936648785
sg6
I14
sg7
I557
sg8
S'Answer38.txt'
p3569
sa(dp3570
g4
F4.938775510204081
sg5
F2.9823163389423826
sg6
I6
sg7
I98
sg8
S'Answer40.txt'
p3571
sa(dp3572
g4
F5.174291938997821
sg5
F10.322264432631446
sg6
I26
sg7
I459
sg8
S'Answer41.txt'
p3573
sa(dp3574
g4
F4.912037037037037
sg5
F2.9715695314277477
sg6
I21
sg7
I432
sg8
S'Answer42.txt'
p3575
sa(dp3576
g4
F4.951890034364261
sg5
F3.152115124976153
sg6
I11
sg7
I291
sg8
S'Answer44.txt'
p3577
sa(dp3578
g4
F4.743362831858407
sg5
F2.423260295815001
sg6
I5
sg7
I113
sg8
S'Answer47.txt'
p3579
sa(dp3580
g4
F5.052631578947368
sg5
F2.936794218407204
sg6
I15
sg7
I494
sg8
S'Answer48.txt'
p3581
sag3580
a(dp3582
g4
F4.840182648401827
sg5
F3.547721883159235
sg6
I16
sg7
I438
sg8
S'Answer50.txt'
p3583
sasS'Nimesh-Kiran-Verma'
p3584
(lp3585
(dp3586
g4
F4.346846846846847
sg5
F2.477186715124468
sg6
I10
sg7
I444
sg8
S'Answer1.txt'
p3587
sa(dp3588
g4
F4.495495495495495
sg5
F3.075253959699325
sg6
I1
sg7
I222
sg8
S'Answer2.txt'
p3589
sa(dp3590
g4
F4.874371859296482
sg5
F3.204785442282745
sg6
I1
sg7
I199
sg8
S'Answer3.txt'
p3591
sa(dp3592
g4
F4.756916996047431
sg5
F2.763075558597241
sg6
I7
sg7
I506
sg8
S'Answer4.txt'
p3593
sa(dp3594
g4
F3.1313131313131315
sg5
F2.6842092101337705
sg6
I2
sg7
I99
sg8
S'Answer5.txt'
p3595
sa(dp3596
g4
F4.09
sg5
F2.2587385860253963
sg6
I5
sg7
I100
sg8
S'Answer10.txt'
p3597
sa(dp3598
g4
F4.292929292929293
sg5
F3.1180560029327165
sg6
I6
sg7
I99
sg8
S'Answer13.txt'
p3599
sa(dp3600
g4
F4.359795134443022
sg5
F2.726523013458943
sg6
I11
sg7
I781
sg8
S'Answer14.txt'
p3601
sa(dp3602
g4
F4.527777777777778
sg5
F3.013728874400459
sg6
I4
sg7
I72
sg8
S'Answer15.txt'
p3603
sa(dp3604
g4
F4.626436781609195
sg5
F2.921106693527122
sg6
I1
sg7
I174
sg8
S'Answer16.txt'
p3605
sa(dp3606
g4
F4.517241379310345
sg5
F2.7889851858737793
sg6
I1
sg7
I348
sg8
S'Answer17.txt'
p3607
sa(dp3608
g4
F4.640483383685801
sg5
F2.5711727035491347
sg6
I14
sg7
I331
sg8
S'Answer20.txt'
p3609
sa(dp3610
g4
F4.8785425101214575
sg5
F3.6398359815916503
sg6
I9
sg7
I247
sg8
S'Answer26.txt'
p3611
sa(dp3612
g4
F4.980830670926518
sg5
F2.847500436331122
sg6
I16
sg7
I313
sg8
S'Answer27.txt'
p3613
sa(dp3614
g4
F4.347107438016529
sg5
F2.720326742047431
sg6
I3
sg7
I121
sg8
S'Answer29.txt'
p3615
sa(dp3616
g4
F5.751295336787565
sg5
F3.713902027556616
sg6
I3
sg7
I193
sg8
S'Answer31.txt'
p3617
sa(dp3618
g4
F5.41743119266055
sg5
F3.1803682216186964
sg6
I9
sg7
I218
sg8
S'Answer35.txt'
p3619
sa(dp3620
g4
F11.685185185185185
sg5
F15.347606972441056
sg6
I12
sg7
I54
sg8
S'Answer36.txt'
p3621
sa(dp3622
g4
F4.811881188118812
sg5
F3.021527397570075
sg6
I1
sg7
I303
sg8
S'Answer37.txt'
p3623
sa(dp3624
g4
F5.118681318681318
sg5
F3.2464997918438527
sg6
I8
sg7
I455
sg8
S'Answer40.txt'
p3625
sa(dp3626
g4
F5.853211009174312
sg5
F3.396775827118314
sg6
I5
sg7
I109
sg8
S'Answer41.txt'
p3627
sa(dp3628
g4
F4.651162790697675
sg5
F3.2627832385666196
sg6
I2
sg7
I129
sg8
S'Answer44.txt'
p3629
sa(dp3630
g4
F4.79375
sg5
F2.8138723503681984
sg6
I15
sg7
I480
sg8
S'Answer46.txt'
p3631
sag3630
a(dp3632
g4
F4.571106094808126
sg5
F2.45064609254599
sg6
I7
sg7
I443
sg8
S'Answer47.txt'
p3633
sa(dp3634
g4
F5.111827956989248
sg5
F4.078315313748827
sg6
I13
sg7
I465
sg8
S'Answer48.txt'
p3635
sag3634
asS'Andrew-Stein-1'
p3636
(lp3637
(dp3638
g4
F5.073852295409182
sg5
F3.2831352357445374
sg6
I25
sg7
I501
sg8
S'Answer3.txt'
p3639
sa(dp3640
g4
F4.654867256637168
sg5
F2.5513137740249903
sg6
I6
sg7
I113
sg8
S'Answer4.txt'
p3641
sa(dp3642
g4
F4.783333333333333
sg5
F2.6950056689282764
sg6
I14
sg7
I300
sg8
S'Answer6.txt'
p3643
sa(dp3644
g4
F4.92
sg5
F2.8381575822245075
sg6
I10
sg7
I325
sg8
S'Answer9.txt'
p3645
sa(dp3646
g4
F4.8522727272727275
sg5
F2.2840343728869152
sg6
I4
sg7
I88
sg8
S'Answer11.txt'
p3647
sa(dp3648
g4
F4.535483870967742
sg5
F2.6983326257926903
sg6
I6
sg7
I155
sg8
S'Answer12.txt'
p3649
sa(dp3650
g4
F4.935483870967742
sg5
F2.6672302560872327
sg6
I8
sg7
I93
sg8
S'Answer14.txt'
p3651
sa(dp3652
g4
F4.769005847953216
sg5
F2.584677896832631
sg6
I17
sg7
I342
sg8
S'Answer16.txt'
p3653
sa(dp3654
g4
F4.904458598726115
sg5
F3.1294439779844687
sg6
I8
sg7
I157
sg8
S'Answer23.txt'
p3655
sa(dp3656
g4
F4.796747967479675
sg5
F2.6988686265375867
sg6
I6
sg7
I123
sg8
S'Answer24.txt'
p3657
sa(dp3658
g4
F4.635593220338983
sg5
F2.5367310281357343
sg6
I8
sg7
I236
sg8
S'Answer25.txt'
p3659
sa(dp3660
g4
F4.717741935483871
sg5
F3.083673144552608
sg6
I7
sg7
I124
sg8
S'Answer29.txt'
p3661
sa(dp3662
g4
F5.35625
sg5
F2.7824154861379
sg6
I6
sg7
I160
sg8
S'Answer31.txt'
p3663
sa(dp3664
g4
F4.971014492753623
sg5
F3.1019910132311446
sg6
I6
sg7
I138
sg8
S'Answer33.txt'
p3665
sa(dp3666
g4
F5.116438356164384
sg5
F5.799752325808456
sg6
I6
sg7
I146
sg8
S'Answer37.txt'
p3667
sa(dp3668
g4
F4.614035087719298
sg5
F2.4956410136364333
sg6
I9
sg7
I228
sg8
S'Answer39.txt'
p3669
sa(dp3670
g4
F4.542483660130719
sg5
F3.018433407690336
sg6
I6
sg7
I153
sg8
S'Answer44.txt'
p3671
sa(dp3672
g4
F4.768817204301075
sg5
F2.796944511604461
sg6
I20
sg7
I372
sg8
S'Answer46.txt'
p3673
sa(dp3674
g4
F4.812849162011173
sg5
F2.699296874024682
sg6
I12
sg7
I358
sg8
S'Answer47.txt'
p3675
sa(dp3676
g4
F4.927536231884058
sg5
F2.878298816102006
sg6
I6
sg7
I138
sg8
S'Answer49.txt'
p3677
sa(dp3678
g4
F4.924170616113744
sg5
F2.7145271204167067
sg6
I11
sg7
I211
sg8
S'Answer50.txt'
p3679
sas.