(dp0
S'Balaji-Viswanathan-2'
p1
(lp2
(dp3
S'avg_word_length'
p4
F4.698795180722891
sS'standard_dev'
p5
F2.639984208418617
sS'no_of_sentences'
p6
I15
sS'no_of_words'
p7
I332
sS'key'
p8
S'Answer1.txt'
p9
sa(dp10
g4
F4.725609756097561
sg5
F2.5574525709361158
sg6
I15
sg7
I328
sg8
S'Answer2.txt'
p11
sa(dp12
g4
F4.948453608247423
sg5
F2.8695742491803804
sg6
I10
sg7
I194
sg8
S'Answer3.txt'
p13
sa(dp14
g4
F4.950381679389313
sg5
F2.4325676456172904
sg6
I20
sg7
I262
sg8
S'Answer4.txt'
p15
sa(dp16
g4
F4.5353075170842825
sg5
F2.3821673930638783
sg6
I26
sg7
I439
sg8
S'Answer5.txt'
p17
sa(dp18
g4
F4.926056338028169
sg5
F2.6639528920216518
sg6
I15
sg7
I284
sg8
S'Answer6.txt'
p19
sa(dp20
g4
F4.42
sg5
F2.6203925551064153
sg6
I18
sg7
I350
sg8
S'Answer7.txt'
p21
sa(dp22
g4
F4.905
sg5
F2.6512842799921184
sg6
I25
sg7
I600
sg8
S'Answer8.txt'
p23
sa(dp24
g4
F5.463320463320463
sg5
F3.138010549702562
sg6
I15
sg7
I259
sg8
S'Answer9.txt'
p25
sa(dp26
g4
F4.484567901234568
sg5
F2.4726421862436725
sg6
I14
sg7
I324
sg8
S'Answer10.txt'
p27
sa(dp28
g4
F4.139705882352941
sg5
F2.6042182809187255
sg6
I7
sg7
I136
sg8
S'Answer11.txt'
p29
sa(dp30
g4
F5.188811188811189
sg5
F2.92911845959912
sg6
I15
sg7
I286
sg8
S'Answer12.txt'
p31
sa(dp32
g4
F4.635838150289017
sg5
F2.8851401258966627
sg6
I8
sg7
I173
sg8
S'Answer13.txt'
p33
sa(dp34
g4
F4.743190661478599
sg5
F2.429592673469971
sg6
I16
sg7
I257
sg8
S'Answer14.txt'
p35
sa(dp36
g4
F4.751313485113835
sg5
F2.516734365194211
sg6
I32
sg7
I571
sg8
S'Answer15.txt'
p37
sa(dp38
g4
F4.57051282051282
sg5
F2.8736472391307584
sg6
I7
sg7
I156
sg8
S'Answer16.txt'
p39
sa(dp40
g4
F4.528497409326425
sg5
F2.573372280195839
sg6
I14
sg7
I193
sg8
S'Answer17.txt'
p41
sa(dp42
g4
F4.425641025641026
sg5
F2.3876517751427935
sg6
I24
sg7
I390
sg8
S'Answer18.txt'
p43
sa(dp44
g4
F4.851851851851852
sg5
F2.5714414995211428
sg6
I19
sg7
I432
sg8
S'Answer19.txt'
p45
sa(dp46
g4
F4.911504424778761
sg5
F2.557506813194824
sg6
I11
sg7
I226
sg8
S'Answer20.txt'
p47
sa(dp48
g4
F4.828571428571428
sg5
F2.6816078028233923
sg6
I26
sg7
I490
sg8
S'Answer21.txt'
p49
sag48
a(dp50
g4
F4.932075471698113
sg5
F2.822268162171989
sg6
I14
sg7
I265
sg8
S'Answer22.txt'
p51
sa(dp52
g4
F4.641379310344828
sg5
F2.5001403052186557
sg6
I18
sg7
I290
sg8
S'Answer23.txt'
p53
sa(dp54
g4
F5.28695652173913
sg5
F2.7998919773923716
sg6
I7
sg7
I115
sg8
S'Answer24.txt'
p55
sa(dp56
g4
F4.638059701492537
sg5
F2.7330835129891398
sg6
I18
sg7
I268
sg8
S'Answer26.txt'
p57
sa(dp58
g4
F5.241645244215938
sg5
F3.0180627381863747
sg6
I22
sg7
I389
sg8
S'Answer27.txt'
p59
sa(dp60
g4
F5.225609756097561
sg5
F3.0788939642072197
sg6
I7
sg7
I164
sg8
S'Answer29.txt'
p61
sa(dp62
g4
F4.7935483870967746
sg5
F2.6486680138625704
sg6
I9
sg7
I155
sg8
S'Answer30.txt'
p63
sa(dp64
g4
F4.945273631840796
sg5
F2.6149189365119128
sg6
I12
sg7
I201
sg8
S'Answer31.txt'
p65
sa(dp66
g4
F4.904040404040404
sg5
F2.62195158990048
sg6
I11
sg7
I198
sg8
S'Answer32.txt'
p67
sa(dp68
g4
F4.819277108433735
sg5
F2.621250406637119
sg6
I8
sg7
I166
sg8
S'Answer33.txt'
p69
sa(dp70
g4
F4.86697247706422
sg5
F2.5782632318715026
sg6
I17
sg7
I218
sg8
S'Answer34.txt'
p71
sa(dp72
g4
F5.056650246305419
sg5
F2.957705576403291
sg6
I24
sg7
I406
sg8
S'Answer35.txt'
p73
sa(dp74
g4
F4.858267716535433
sg5
F2.6029190441454566
sg6
I17
sg7
I254
sg8
S'Answer36.txt'
p75
sa(dp76
g4
F4.7875
sg5
F2.613055306669627
sg6
I34
sg7
I560
sg8
S'Answer37.txt'
p77
sa(dp78
g4
F4.976744186046512
sg5
F2.8118385286682734
sg6
I22
sg7
I430
sg8
S'Answer38.txt'
p79
sag78
a(dp80
g4
F5.001831501831502
sg5
F2.8654178327468687
sg6
I28
sg7
I546
sg8
S'Answer39.txt'
p81
sa(dp82
g4
F4.858895705521473
sg5
F2.646626051292538
sg6
I8
sg7
I163
sg8
S'Answer40.txt'
p83
sa(dp84
g4
F5.270422535211267
sg5
F2.8856319329481166
sg6
I39
sg7
I710
sg8
S'Answer41.txt'
p85
sa(dp86
g4
F4.889460154241645
sg5
F2.628813443338578
sg6
I16
sg7
I389
sg8
S'Answer42.txt'
p87
sa(dp88
g4
F5.071294559099437
sg5
F2.8970097822950884
sg6
I23
sg7
I533
sg8
S'Answer43.txt'
p89
sag88
a(dp90
g4
F4.8478260869565215
sg5
F2.671830617569407
sg6
I29
sg7
I414
sg8
S'Answer44.txt'
p91
sa(dp92
g4
F5.044715447154472
sg5
F2.61445958139909
sg6
I26
sg7
I492
sg8
S'Answer45.txt'
p93
sa(dp94
g4
F4.947882736156352
sg5
F2.8451719913770215
sg6
I13
sg7
I307
sg8
S'Answer46.txt'
p95
sa(dp96
g4
F4.449056603773585
sg5
F2.438343285496957
sg6
I28
sg7
I530
sg8
S'Answer47.txt'
p97
sa(dp98
g4
F4.828703703703703
sg5
F2.598666001294235
sg6
I10
sg7
I216
sg8
S'Answer48.txt'
p99
sa(dp100
g4
F5.265033407572383
sg5
F2.9680785084447354
sg6
I21
sg7
I449
sg8
S'Answer49.txt'
p101
sa(dp102
g4
F4.9
sg5
F2.7546770435089294
sg6
I37
sg7
I570
sg8
S'Answer50.txt'
p103
sas.