(dp0
S'Balaji-Viswanathan-2'
p1
(lp2
(dp3
S'avg_word_length'
p4
F4.872222222222222
sS'standard_dev'
p5
F2.7080754863013285
sS'no_of_sentences'
p6
I11
sS'no_of_words'
p7
I360
sS'key'
p8
S'Answer1.txt'
p9
sa(dp10
g4
F4.602094240837697
sg5
F2.543608314606314
sg6
I9
sg7
I191
sg8
S'Answer2.txt'
p11
sa(dp12
g4
F4.683168316831683
sg5
F2.7482872904911853
sg6
I11
sg7
I202
sg8
S'Answer3.txt'
p13
sa(dp14
g4
F4.560117302052786
sg5
F2.4804322743758087
sg6
I17
sg7
I341
sg8
S'Answer4.txt'
p15
sa(dp16
g4
F4.807355516637478
sg5
F2.6883705918794445
sg6
I27
sg7
I571
sg8
S'Answer5.txt'
p17
sa(dp18
g4
F5.575
sg5
F3.7090261525095767
sg6
I10
sg7
I160
sg8
S'Answer6.txt'
p19
sa(dp20
g4
F4.5664488017429194
sg5
F2.709108058745214
sg6
I25
sg7
I459
sg8
S'Answer7.txt'
p21
sa(dp22
g4
F4.839080459770115
sg5
F2.8387314225392397
sg6
I10
sg7
I261
sg8
S'Answer8.txt'
p23
sa(dp24
g4
F5.181818181818182
sg5
F3.008584658471975
sg6
I11
sg7
I319
sg8
S'Answer9.txt'
p25
sa(dp26
g4
F4.984375
sg5
F3.252365425252058
sg6
I7
sg7
I128
sg8
S'Answer10.txt'
p27
sa(dp28
g4
F4.982832618025751
sg5
F2.6072952542431254
sg6
I10
sg7
I233
sg8
S'Answer11.txt'
p29
sa(dp30
g4
F4.881696428571429
sg5
F2.7421681946672014
sg6
I23
sg7
I448
sg8
S'Answer12.txt'
p31
sa(dp32
g4
F4.821100917431193
sg5
F2.671651154042805
sg6
I16
sg7
I436
sg8
S'Answer13.txt'
p33
sag32
a(dp34
g4
F5.036486486486487
sg5
F2.696848727798466
sg6
I34
sg7
I740
sg8
S'Answer14.txt'
p35
sa(dp36
g4
F4.580980683506686
sg5
F2.52354044813753
sg6
I40
sg7
I673
sg8
S'Answer15.txt'
p37
sa(dp38
g4
F4.589211618257261
sg5
F2.367073538737301
sg6
I11
sg7
I241
sg8
S'Answer16.txt'
p39
sa(dp40
g4
F4.981912144702842
sg5
F2.762275110405019
sg6
I21
sg7
I387
sg8
S'Answer17.txt'
p41
sa(dp42
g4
F5.055276381909548
sg5
F3.322219969632972
sg6
I16
sg7
I398
sg8
S'Answer18.txt'
p43
sa(dp44
g4
F5.634674922600619
sg5
F3.330547069142488
sg6
I14
sg7
I323
sg8
S'Answer19.txt'
p45
sa(dp46
g4
F5.094444444444444
sg5
F2.8561769751855848
sg6
I16
sg7
I360
sg8
S'Answer20.txt'
p47
sa(dp48
g4
F5.524528301886792
sg5
F3.1801807033253255
sg6
I7
sg7
I265
sg8
S'Answer21.txt'
p49
sa(dp50
g4
F4.895470383275262
sg5
F2.6071892774720746
sg6
I16
sg7
I287
sg8
S'Answer22.txt'
p51
sa(dp52
g4
F4.603738317757009
sg5
F2.747978874398272
sg6
I31
sg7
I535
sg8
S'Answer23.txt'
p53
sa(dp54
g4
F4.202185792349726
sg5
F4.498645288302032
sg6
I4
sg7
I183
sg8
S'Answer24.txt'
p55
sa(dp56
g4
F4.969101123595506
sg5
F2.8455860321168487
sg6
I17
sg7
I356
sg8
S'Answer25.txt'
p57
sa(dp58
g4
F5.002762430939226
sg5
F2.788094874992374
sg6
I29
sg7
I724
sg8
S'Answer26.txt'
p59
sa(dp60
g4
F4.590785907859079
sg5
F2.4279362533022844
sg6
I24
sg7
I369
sg8
S'Answer27.txt'
p61
sa(dp62
g4
F4.596774193548387
sg5
F2.532751133421944
sg6
I11
sg7
I310
sg8
S'Answer28.txt'
p63
sa(dp64
g4
F4.727868852459016
sg5
F2.5053471437445887
sg6
I18
sg7
I305
sg8
S'Answer29.txt'
p65
sa(dp66
g4
F4.778625954198473
sg5
F2.4905625727517937
sg6
I16
sg7
I262
sg8
S'Answer30.txt'
p67
sa(dp68
g4
F5.062068965517241
sg5
F2.7094233758728996
sg6
I13
sg7
I290
sg8
S'Answer31.txt'
p69
sa(dp70
g4
F4.732824427480916
sg5
F2.695272727581481
sg6
I8
sg7
I131
sg8
S'Answer32.txt'
p71
sa(dp72
g4
F5.237924865831842
sg5
F2.9767603119832917
sg6
I24
sg7
I559
sg8
S'Answer33.txt'
p73
sa(dp74
g4
F4.975476839237057
sg5
F2.7277858252287994
sg6
I23
sg7
I367
sg8
S'Answer34.txt'
p75
sa(dp76
g4
F5.549738219895288
sg5
F4.287616093347432
sg6
I9
sg7
I191
sg8
S'Answer35.txt'
p77
sa(dp78
g4
F4.414634146341464
sg5
F2.453769178428765
sg6
I21
sg7
I451
sg8
S'Answer36.txt'
p79
sa(dp80
g4
F5.11214953271028
sg5
F2.868869661821267
sg6
I12
sg7
I321
sg8
S'Answer37.txt'
p81
sa(dp82
g4
F4.717092337917485
sg5
F2.898160549562687
sg6
I22
sg7
I509
sg8
S'Answer38.txt'
p83
sa(dp84
g4
F4.781512605042017
sg5
F2.4942274999024603
sg6
I10
sg7
I238
sg8
S'Answer39.txt'
p85
sa(dp86
g4
F4.936305732484076
sg5
F2.718611318096859
sg6
I15
sg7
I314
sg8
S'Answer40.txt'
p87
sa(dp88
g4
F4.864583333333333
sg5
F2.9015792814239774
sg6
I10
sg7
I192
sg8
S'Answer41.txt'
p89
sa(dp90
g4
F4.9820224719101125
sg5
F2.8076365284522593
sg6
I28
sg7
I445
sg8
S'Answer42.txt'
p91
sa(dp92
g4
F4.88504326328801
sg5
F2.6628212181647237
sg6
I34
sg7
I809
sg8
S'Answer43.txt'
p93
sa(dp94
g4
F5.194267515923567
sg5
F2.591724754351928
sg6
I14
sg7
I314
sg8
S'Answer44.txt'
p95
sa(dp96
g4
F4.513761467889908
sg5
F2.5601558112671206
sg6
I26
sg7
I545
sg8
S'Answer45.txt'
p97
sa(dp98
g4
F5.085365853658536
sg5
F2.9607234593484826
sg6
I12
sg7
I410
sg8
S'Answer46.txt'
p99
sa(dp100
g4
F4.39375
sg5
F2.5959027211164907
sg6
I14
sg7
I320
sg8
S'Answer47.txt'
p101
sa(dp102
g4
F5.355048859934853
sg5
F2.7926728666787497
sg6
I11
sg7
I307
sg8
S'Answer48.txt'
p103
sa(dp104
g4
F4.741935483870968
sg5
F2.4523555751165826
sg6
I16
sg7
I372
sg8
S'Answer49.txt'
p105
sa(dp106
g4
F4.593350383631714
sg5
F2.6904884614357276
sg6
I15
sg7
I391
sg8
S'Answer50.txt'
p107
sas.