(dp0
S'Jeff-Lee-36'
p1
(lp2
(dp3
S'avg_word_length'
p4
F4.6873889875666075
sS'standard_dev'
p5
F2.5914809408533026
sS'no_of_sentences'
p6
I22
sS'no_of_words'
p7
I563
sS'key'
p8
S'Answer1.txt'
p9
sa(dp10
g4
F4.629310344827586
sg5
F2.2876360800443267
sg6
I9
sg7
I116
sg8
S'Answer3.txt'
p11
sa(dp12
g4
F4.290697674418604
sg5
F2.6297328499464765
sg6
I6
sg7
I172
sg8
S'Answer4.txt'
p13
sa(dp14
g4
F5.1940298507462686
sg5
F3.434846912533623
sg6
I4
sg7
I134
sg8
S'Answer5.txt'
p15
sa(dp16
g4
F4.5
sg5
F2.4744145313037733
sg6
I4
sg7
I110
sg8
S'Answer6.txt'
p17
sa(dp18
g4
F4.764227642276423
sg5
F2.818583224837163
sg6
I12
sg7
I492
sg8
S'Answer7.txt'
p19
sa(dp20
g4
F4.4
sg5
F2.710328827456398
sg6
I5
sg7
I170
sg8
S'Answer9.txt'
p21
sa(dp22
g4
F4.691460055096419
sg5
F2.582758858814459
sg6
I18
sg7
I363
sg8
S'Answer10.txt'
p23
sa(dp24
g4
F4.673076923076923
sg5
F2.8180131697442548
sg6
I8
sg7
I208
sg8
S'Answer11.txt'
p25
sa(dp26
g4
F4.535714285714286
sg5
F2.5083025400962025
sg6
I5
sg7
I140
sg8
S'Answer13.txt'
p27
sa(dp28
g4
F4.93006993006993
sg5
F3.0281900469000873
sg6
I3
sg7
I143
sg8
S'Answer14.txt'
p29
sa(dp30
g4
F4.844444444444444
sg5
F2.8059900653625967
sg6
I6
sg7
I225
sg8
S'Answer15.txt'
p31
sa(dp32
g4
F4.32994923857868
sg5
F2.21388477212011
sg6
I5
sg7
I197
sg8
S'Answer16.txt'
p33
sa(dp34
g4
F4.673151750972763
sg5
F2.620292515736026
sg6
I10
sg7
I257
sg8
S'Answer17.txt'
p35
sa(dp36
g4
F4.5962962962962965
sg5
F2.6012790986830985
sg6
I7
sg7
I270
sg8
S'Answer18.txt'
p37
sa(dp38
g4
F4.472549019607843
sg5
F2.421762316616835
sg6
I12
sg7
I510
sg8
S'Answer19.txt'
p39
sa(dp40
g4
F5.458333333333333
sg5
F4.1681247448809495
sg6
I5
sg7
I96
sg8
S'Answer21.txt'
p41
sa(dp42
g4
F5.0
sg5
F2.979093821953246
sg6
I10
sg7
I176
sg8
S'Answer22.txt'
p43
sa(dp44
g4
F4.6305555555555555
sg5
F2.484319652500954
sg6
I12
sg7
I360
sg8
S'Answer23.txt'
p45
sa(dp46
g4
F4.310344827586207
sg5
F2.5085550919935646
sg6
I7
sg7
I203
sg8
S'Answer24.txt'
p47
sa(dp48
g4
F4.7176470588235295
sg5
F2.537306421272867
sg6
I6
sg7
I170
sg8
S'Answer25.txt'
p49
sa(dp50
g4
F5.071698113207547
sg5
F3.0229547808357244
sg6
I5
sg7
I265
sg8
S'Answer26.txt'
p51
sa(dp52
g4
F5.802469135802469
sg5
F4.39533915062847
sg6
I1
sg7
I81
sg8
S'Answer27.txt'
p53
sa(dp54
g4
F4.620320855614973
sg5
F2.5353572254591716
sg6
I15
sg7
I187
sg8
S'Answer28.txt'
p55
sa(dp56
g4
F5.448559670781893
sg5
F3.3160707299371
sg6
I6
sg7
I243
sg8
S'Answer29.txt'
p57
sa(dp58
g4
F5.207272727272727
sg5
F3.1259532099944125
sg6
I4
sg7
I275
sg8
S'Answer30.txt'
p59
sa(dp60
g4
F4.3090909090909095
sg5
F1.9246981087737782
sg6
I5
sg7
I110
sg8
S'Answer31.txt'
p61
sa(dp62
g4
F5.051546391752577
sg5
F2.7484621155157165
sg6
I2
sg7
I97
sg8
S'Answer33.txt'
p63
sa(dp64
g4
F4.7696969696969695
sg5
F2.71945681390937
sg6
I9
sg7
I330
sg8
S'Answer34.txt'
p65
sa(dp66
g4
F4.726495726495727
sg5
F2.675063483946525
sg6
I17
sg7
I351
sg8
S'Answer35.txt'
p67
sa(dp68
g4
F4.958083832335329
sg5
F2.6589658369963045
sg6
I8
sg7
I167
sg8
S'Answer36.txt'
p69
sa(dp70
g4
F7.333333333333333
sg5
F5.0403390680733935
sg6
I1
sg7
I93
sg8
S'Answer37.txt'
p71
sa(dp72
g4
F4.560327198364008
sg5
F2.6701678246806195
sg6
I21
sg7
I489
sg8
S'Answer39.txt'
p73
sa(dp74
g4
F4.716186252771618
sg5
F2.680996538567521
sg6
I26
sg7
I451
sg8
S'Answer40.txt'
p75
sag74
a(dp76
g4
F4.832764505119454
sg5
F2.6365800715230336
sg6
I10
sg7
I293
sg8
S'Answer41.txt'
p77
sa(dp78
g4
F4.436507936507937
sg5
F2.6170868080841556
sg6
I8
sg7
I126
sg8
S'Answer42.txt'
p79
sa(dp80
g4
F4.517857142857143
sg5
F2.4237741483993465
sg6
I5
sg7
I112
sg8
S'Answer43.txt'
p81
sa(dp82
g4
F4.646464646464646
sg5
F2.8319240629970603
sg6
I9
sg7
I297
sg8
S'Answer44.txt'
p83
sa(dp84
g4
F5.425414364640884
sg5
F3.141456091570161
sg6
I4
sg7
I362
sg8
S'Answer45.txt'
p85
sa(dp86
g4
F5.006711409395973
sg5
F2.690184272927844
sg6
I10
sg7
I447
sg8
S'Answer46.txt'
p87
sa(dp88
g4
F4.797235023041475
sg5
F2.738257999354961
sg6
I7
sg7
I217
sg8
S'Answer47.txt'
p89
sa(dp90
g4
F5.166666666666667
sg5
F3.006800570906327
sg6
I6
sg7
I102
sg8
S'Answer48.txt'
p91
sasS'Marcus-Geduld'
p92
(lp93
(dp94
g4
F5.011363636363637
sg5
F2.820357481298082
sg6
I12
sg7
I176
sg8
S'Answer4.txt'
p95
sa(dp96
g4
F4.516260162601626
sg5
F2.3594085652645824
sg6
I10
sg7
I246
sg8
S'Answer5.txt'
p97
sa(dp98
g4
F4.808333333333334
sg5
F2.6779837979760486
sg6
I8
sg7
I120
sg8
S'Answer6.txt'
p99
sa(dp100
g4
F5.144578313253012
sg5
F2.630371864866542
sg6
I5
sg7
I83
sg8
S'Answer7.txt'
p101
sa(dp102
g4
F4.4271186440677965
sg5
F2.551292826709332
sg6
I16
sg7
I295
sg8
S'Answer8.txt'
p103
sa(dp104
g4
F4.53125
sg5
F2.4914567567656745
sg6
I6
sg7
I96
sg8
S'Answer16.txt'
p105
sa(dp106
g4
F4.9714285714285715
sg5
F2.870540018881466
sg6
I15
sg7
I245
sg8
S'Answer18.txt'
p107
sa(dp108
g4
F4.522123893805309
sg5
F2.6242482113770818
sg6
I8
sg7
I113
sg8
S'Answer21.txt'
p109
sa(dp110
g4
F4.391566265060241
sg5
F2.452621160893371
sg6
I46
sg7
I664
sg8
S'Answer22.txt'
p111
sag110
a(dp112
g4
F4.359223300970874
sg5
F2.814161031170743
sg6
I10
sg7
I103
sg8
S'Answer23.txt'
p113
sa(dp114
g4
F4.555555555555555
sg5
F2.2881875948304162
sg6
I10
sg7
I180
sg8
S'Answer24.txt'
p115
sa(dp116
g4
F4.755395683453237
sg5
F2.5722417695723028
sg6
I11
sg7
I139
sg8
S'Answer25.txt'
p117
sa(dp118
g4
F4.152709359605911
sg5
F2.513280988930856
sg6
I14
sg7
I203
sg8
S'Answer26.txt'
p119
sa(dp120
g4
F4.219512195121951
sg5
F2.542441644983017
sg6
I12
sg7
I287
sg8
S'Answer27.txt'
p121
sa(dp122
g4
F4.737254901960784
sg5
F2.8459782965505416
sg6
I38
sg7
I510
sg8
S'Answer28.txt'
p123
sa(dp124
g4
F5.328888888888889
sg5
F2.9361064332980713
sg6
I6
sg7
I225
sg8
S'Answer31.txt'
p125
sa(dp126
g4
F4.968680089485459
sg5
F3.029150515237894
sg6
I25
sg7
I447
sg8
S'Answer36.txt'
p127
sag126
a(dp128
g4
F4.491935483870968
sg5
F2.434615846169231
sg6
I24
sg7
I372
sg8
S'Answer38.txt'
p129
sa(dp130
g4
F4.508038585209003
sg5
F2.740508263428436
sg6
I15
sg7
I311
sg8
S'Answer39.txt'
p131
sa(dp132
g4
F4.475675675675675
sg5
F2.906786598160615
sg6
I28
sg7
I370
sg8
S'Answer41.txt'
p133
sa(dp134
g4
F5.197368421052632
sg5
F2.7650056478580605
sg6
I11
sg7
I152
sg8
S'Answer42.txt'
p135
sa(dp136
g4
F4.656565656565657
sg5
F2.5826210793743254
sg6
I8
sg7
I99
sg8
S'Answer43.txt'
p137
sa(dp138
g4
F4.96875
sg5
F3.193264803326944
sg6
I8
sg7
I96
sg8
S'Answer44.txt'
p139
sa(dp140
g4
F5.564885496183206
sg5
F3.3591602836596475
sg6
I8
sg7
I131
sg8
S'Answer45.txt'
p141
sa(dp142
g4
F5.2023809523809526
sg5
F3.1273743814167743
sg6
I5
sg7
I84
sg8
S'Answer48.txt'
p143
sasS'Virali-Modi'
p144
(lp145
(dp146
g4
F4.6120906801007555
sg5
F2.603167013580427
sg6
I21
sg7
I397
sg8
S'Answer2.txt'
p147
sa(dp148
g4
F4.863636363636363
sg5
F2.9239676429227974
sg6
I5
sg7
I88
sg8
S'Answer4.txt'
p149
sa(dp150
g4
F4.5
sg5
F2.586266712890239
sg6
I11
sg7
I196
sg8
S'Answer5.txt'
p151
sa(dp152
g4
F4.364779874213837
sg5
F2.807047249285403
sg6
I6
sg7
I159
sg8
S'Answer7.txt'
p153
sa(dp154
g4
F4.756302521008403
sg5
F2.786420813606201
sg6
I7
sg7
I119
sg8
S'Answer8.txt'
p155
sa(dp156
g4
F4.556179775280899
sg5
F2.5659155256038315
sg6
I10
sg7
I178
sg8
S'Answer9.txt'
p157
sa(dp158
g4
F4.193939393939394
sg5
F2.3507496410963866
sg6
I29
sg7
I495
sg8
S'Answer11.txt'
p159
sa(dp160
g4
F4.656
sg5
F2.520647535852644
sg6
I9
sg7
I125
sg8
S'Answer13.txt'
p161
sa(dp162
g4
F4.846938775510204
sg5
F2.752928091666075
sg6
I6
sg7
I98
sg8
S'Answer14.txt'
p163
sa(dp164
g4
F4.47093023255814
sg5
F2.548203483855344
sg6
I8
sg7
I172
sg8
S'Answer15.txt'
p165
sa(dp166
g4
F4.5394736842105265
sg5
F2.344875653047482
sg6
I22
sg7
I456
sg8
S'Answer16.txt'
p167
sa(dp168
g4
F4.192660550458716
sg5
F2.3139401939474262
sg6
I20
sg7
I327
sg8
S'Answer17.txt'
p169
sa(dp170
g4
F4.545454545454546
sg5
F2.597218038555853
sg6
I11
sg7
I209
sg8
S'Answer18.txt'
p171
sa(dp172
g4
F4.945945945945946
sg5
F2.588393490554135
sg6
I12
sg7
I222
sg8
S'Answer19.txt'
p173
sa(dp174
g4
F4.756302521008403
sg5
F2.907441586816482
sg6
I8
sg7
I119
sg8
S'Answer20.txt'
p175
sa(dp176
g4
F4.15680473372781
sg5
F2.2615184124650463
sg6
I17
sg7
I338
sg8
S'Answer21.txt'
p177
sa(dp178
g4
F4.322916666666667
sg5
F2.2430206180629644
sg6
I8
sg7
I192
sg8
S'Answer24.txt'
p179
sa(dp180
g4
F3.8205128205128207
sg5
F2.1507914846677703
sg6
I6
sg7
I117
sg8
S'Answer25.txt'
p181
sa(dp182
g4
F4.37386018237082
sg5
F2.3681108354085323
sg6
I13
sg7
I329
sg8
S'Answer28.txt'
p183
sa(dp184
g4
F4.261780104712042
sg5
F2.6712655537127605
sg6
I7
sg7
I191
sg8
S'Answer29.txt'
p185
sa(dp186
g4
F4.45320197044335
sg5
F2.7483137855131177
sg6
I19
sg7
I406
sg8
S'Answer30.txt'
p187
sa(dp188
g4
F4.071005917159764
sg5
F2.4677181192229636
sg6
I12
sg7
I169
sg8
S'Answer32.txt'
p189
sa(dp190
g4
F4.478390461997019
sg5
F2.5483218702208386
sg6
I43
sg7
I671
sg8
S'Answer33.txt'
p191
sa(dp192
g4
F4.455252918287938
sg5
F2.603301860725275
sg6
I12
sg7
I257
sg8
S'Answer34.txt'
p193
sa(dp194
g4
F4.532976827094474
sg5
F2.416387873290774
sg6
I27
sg7
I561
sg8
S'Answer35.txt'
p195
sa(dp196
g4
F4.386281588447654
sg5
F2.574288216114296
sg6
I13
sg7
I277
sg8
S'Answer36.txt'
p197
sa(dp198
g4
F4.374358974358974
sg5
F2.3023642195236014
sg6
I18
sg7
I390
sg8
S'Answer37.txt'
p199
sa(dp200
g4
F4.772151898734177
sg5
F2.550499415421616
sg6
I11
sg7
I237
sg8
S'Answer38.txt'
p201
sa(dp202
g4
F4.76
sg5
F2.863983240174425
sg6
I5
sg7
I100
sg8
S'Answer39.txt'
p203
sa(dp204
g4
F4.45945945945946
sg5
F2.9371303755453315
sg6
I7
sg7
I111
sg8
S'Answer40.txt'
p205
sa(dp206
g4
F4.302884615384615
sg5
F2.4513715443043007
sg6
I9
sg7
I208
sg8
S'Answer42.txt'
p207
sa(dp208
g4
F4.511627906976744
sg5
F2.2183239477800143
sg6
I17
sg7
I301
sg8
S'Answer46.txt'
p209
sa(dp210
g4
F4.602941176470588
sg5
F2.6534644716713536
sg6
I13
sg7
I272
sg8
S'Answer48.txt'
p211
sasS'Gauri-Noolkar'
p212
(lp213
(dp214
g4
F5.162679425837321
sg5
F3.9762867072900967
sg6
I6
sg7
I209
sg8
S'Answer1.txt'
p215
sa(dp216
g4
F5.261477045908183
sg5
F3.095533614299406
sg6
I16
sg7
I501
sg8
S'Answer2.txt'
p217
sa(dp218
g4
F5.091772151898734
sg5
F2.9091402268501336
sg6
I10
sg7
I316
sg8
S'Answer3.txt'
p219
sa(dp220
g4
F5.105769230769231
sg5
F2.9190519268888955
sg6
I25
sg7
I624
sg8
S'Answer4.txt'
p221
sa(dp222
g4
F4.833652007648183
sg5
F2.9412760217415035
sg6
I13
sg7
I523
sg8
S'Answer5.txt'
p223
sa(dp224
g4
F4.573264781491003
sg5
F2.9078220693433394
sg6
I24
sg7
I389
sg8
S'Answer6.txt'
p225
sa(dp226
g4
F4.976076555023924
sg5
F3.131015078209724
sg6
I5
sg7
I209
sg8
S'Answer7.txt'
p227
sa(dp228
g4
F4.505660377358491
sg5
F2.452754715819996
sg6
I12
sg7
I265
sg8
S'Answer8.txt'
p229
sa(dp230
g4
F4.574626865671642
sg5
F2.7026158297947833
sg6
I3
sg7
I134
sg8
S'Answer9.txt'
p231
sa(dp232
g4
F4.491228070175438
sg5
F2.550927869377654
sg6
I6
sg7
I171
sg8
S'Answer10.txt'
p233
sa(dp234
g4
F4.7396630934150075
sg5
F2.794586411191822
sg6
I23
sg7
I653
sg8
S'Answer11.txt'
p235
sa(dp236
g4
F4.699186991869919
sg5
F2.907615342732632
sg6
I6
sg7
I123
sg8
S'Answer12.txt'
p237
sa(dp238
g4
F4.778097982708934
sg5
F2.815106196096073
sg6
I12
sg7
I347
sg8
S'Answer13.txt'
p239
sa(dp240
g4
F4.711382113821138
sg5
F2.7337904610418335
sg6
I9
sg7
I246
sg8
S'Answer14.txt'
p241
sa(dp242
g4
F4.808219178082192
sg5
F3.034313057807793
sg6
I7
sg7
I365
sg8
S'Answer15.txt'
p243
sa(dp244
g4
F5.111607142857143
sg5
F3.1111907899351885
sg6
I7
sg7
I224
sg8
S'Answer16.txt'
p245
sa(dp246
g4
F5.1256830601092895
sg5
F2.6715555829670534
sg6
I8
sg7
I183
sg8
S'Answer17.txt'
p247
sa(dp248
g4
F5.011111111111111
sg5
F2.794814422161334
sg6
I6
sg7
I90
sg8
S'Answer18.txt'
p249
sa(dp250
g4
F4.756756756756757
sg5
F2.901432439691468
sg6
I7
sg7
I222
sg8
S'Answer20.txt'
p251
sa(dp252
g4
F4.2176470588235295
sg5
F2.2969891531198354
sg6
I4
sg7
I170
sg8
S'Answer21.txt'
p253
sa(dp254
g4
F5.077272727272727
sg5
F2.7811756536631993
sg6
I9
sg7
I220
sg8
S'Answer22.txt'
p255
sa(dp256
g4
F5.058315334773218
sg5
F3.0797273048200635
sg6
I17
sg7
I463
sg8
S'Answer23.txt'
p257
sa(dp258
g4
F4.562582345191041
sg5
F2.6605935469130486
sg6
I48
sg7
I759
sg8
S'Answer24.txt'
p259
sa(dp260
g4
F4.868852459016393
sg5
F2.6331767875752483
sg6
I3
sg7
I122
sg8
S'Answer27.txt'
p261
sa(dp262
g4
F4.9491525423728815
sg5
F2.885814098418176
sg6
I10
sg7
I236
sg8
S'Answer28.txt'
p263
sa(dp264
g4
F4.171102661596958
sg5
F2.7502508563275754
sg6
I10
sg7
I263
sg8
S'Answer30.txt'
p265
sa(dp266
g4
F5.033112582781457
sg5
F3.2088809267242433
sg6
I7
sg7
I151
sg8
S'Answer31.txt'
p267
sa(dp268
g4
F4.775862068965517
sg5
F2.666316737841225
sg6
I17
sg7
I464
sg8
S'Answer32.txt'
p269
sa(dp270
g4
F4.287356321839081
sg5
F2.3484308577695887
sg6
I10
sg7
I174
sg8
S'Answer33.txt'
p271
sa(dp272
g4
F5.078431372549019
sg5
F2.650759939783716
sg6
I4
sg7
I153
sg8
S'Answer34.txt'
p273
sa(dp274
g4
F4.866197183098592
sg5
F2.9172359898153144
sg6
I4
sg7
I142
sg8
S'Answer35.txt'
p275
sa(dp276
g4
F4.596244131455399
sg5
F2.80783360536612
sg6
I12
sg7
I213
sg8
S'Answer38.txt'
p277
sa(dp278
g4
F4.268518518518518
sg5
F2.4630847923085204
sg6
I3
sg7
I108
sg8
S'Answer40.txt'
p279
sa(dp280
g4
F4.873493975903615
sg5
F2.772871346271903
sg6
I15
sg7
I332
sg8
S'Answer41.txt'
p281
sa(dp282
g4
F4.796610169491525
sg5
F2.7817788542216815
sg6
I4
sg7
I118
sg8
S'Answer42.txt'
p283
sa(dp284
g4
F4.564356435643564
sg5
F2.4576243926059655
sg6
I22
sg7
I505
sg8
S'Answer43.txt'
p285
sag284
a(dp286
g4
F4.889908256880734
sg5
F2.617301115500065
sg6
I4
sg7
I109
sg8
S'Answer44.txt'
p287
sa(dp288
g4
F4.7972602739726025
sg5
F2.6878709098741873
sg6
I13
sg7
I365
sg8
S'Answer46.txt'
p289
sa(dp290
g4
F4.725581395348837
sg5
F2.713282832980538
sg6
I9
sg7
I215
sg8
S'Answer47.txt'
p291
sa(dp292
g4
F4.935779816513762
sg5
F3.0307553867833326
sg6
I12
sg7
I327
sg8
S'Answer49.txt'
p293
sa(dp294
g4
F4.571428571428571
sg5
F2.582916435992554
sg6
I27
sg7
I497
sg8
S'Answer50.txt'
p295
sag294
asS'Siddharth-Bhattacharya'
p296
(lp297
(dp298
g4
F5.095118898623279
sg5
F2.965966942585744
sg6
I31
sg7
I799
sg8
S'Answer1.txt'
p299
sa(dp300
g4
F4.446952595936795
sg5
F2.5379749601660837
sg6
I41
sg7
I886
sg8
S'Answer2.txt'
p301
sa(dp302
g4
F5.082304526748971
sg5
F3.1350625051789134
sg6
I6
sg7
I243
sg8
S'Answer3.txt'
p303
sa(dp304
g4
F5.281746031746032
sg5
F2.9315353651074596
sg6
I33
sg7
I756
sg8
S'Answer4.txt'
p305
sag304
a(dp306
g4
F4.726643598615917
sg5
F3.023783946879655
sg6
I34
sg7
I578
sg8
S'Answer5.txt'
p307
sa(dp308
g4
F4.905848787446505
sg5
F2.97296089146093
sg6
I35
sg7
I701
sg8
S'Answer6.txt'
p309
sag308
a(dp310
g4
F5.059050064184852
sg5
F3.6322057676000132
sg6
I52
sg7
I779
sg8
S'Answer7.txt'
p311
sag310
a(dp312
g4
F4.687179487179487
sg5
F4.35551597346799
sg6
I26
sg7
I585
sg8
S'Answer8.txt'
p313
sa(dp314
g4
F4.744604316546763
sg5
F2.6868095776857697
sg6
I31
sg7
I556
sg8
S'Answer9.txt'
p315
sa(dp316
g4
F4.895555555555555
sg5
F2.855828780702959
sg6
I13
sg7
I450
sg8
S'Answer10.txt'
p317
sag316
a(dp318
g4
F5.055299539170507
sg5
F2.7702637628583746
sg6
I34
sg7
I651
sg8
S'Answer11.txt'
p319
sa(dp320
g4
F4.590711175616836
sg5
F2.538121698890773
sg6
I34
sg7
I689
sg8
S'Answer12.txt'
p321
sa(dp322
g4
F5.34341252699784
sg5
F2.9562677889847304
sg6
I18
sg7
I463
sg8
S'Answer13.txt'
p323
sa(dp324
g4
F5.321678321678322
sg5
F3.000236351065918
sg6
I17
sg7
I572
sg8
S'Answer14.txt'
p325
sa(dp326
g4
F5.311958405545927
sg5
F3.056897614859325
sg6
I25
sg7
I577
sg8
S'Answer15.txt'
p327
sa(dp328
g4
F5.034408602150537
sg5
F2.9305397727937423
sg6
I20
sg7
I465
sg8
S'Answer16.txt'
p329
sag328
a(dp330
g4
F4.530405405405405
sg5
F2.316747451615162
sg6
I37
sg7
I592
sg8
S'Answer17.txt'
p331
sa(dp332
g4
F5.434083601286174
sg5
F3.0559618153381853
sg6
I28
sg7
I622
sg8
S'Answer18.txt'
p333
sa(dp334
g4
F4.882113821138211
sg5
F2.702188188490009
sg6
I39
sg7
I738
sg8
S'Answer19.txt'
p335
sa(dp336
g4
F4.997757847533633
sg5
F2.9868912997344617
sg6
I28
sg7
I446
sg8
S'Answer20.txt'
p337
sag336
a(dp338
g4
F4.9624217118997915
sg5
F2.7564021475819804
sg6
I23
sg7
I479
sg8
S'Answer21.txt'
p339
sa(dp340
g4
F4.738264580369844
sg5
F2.875768357413753
sg6
I35
sg7
I703
sg8
S'Answer22.txt'
p341
sa(dp342
g4
F5.256821829855538
sg5
F2.9361609190528335
sg6
I25
sg7
I623
sg8
S'Answer23.txt'
p343
sa(dp344
g4
F4.771378708551484
sg5
F2.5823439339877976
sg6
I29
sg7
I573
sg8
S'Answer24.txt'
p345
sa(dp346
g4
F5.1189024390243905
sg5
F2.985413116854474
sg6
I31
sg7
I656
sg8
S'Answer25.txt'
p347
sa(dp348
g4
F5.18018018018018
sg5
F3.0941416756263505
sg6
I38
sg7
I777
sg8
S'Answer26.txt'
p349
sa(dp350
g4
F5.0
sg5
F2.90373116459823
sg6
I28
sg7
I556
sg8
S'Answer27.txt'
p351
sag350
a(dp352
g4
F4.9789644012944985
sg5
F3.6106473563706123
sg6
I41
sg7
I618
sg8
S'Answer28.txt'
p353
sa(dp354
g4
F5.38568129330254
sg5
F2.866784868580417
sg6
I19
sg7
I433
sg8
S'Answer29.txt'
p355
sa(dp356
g4
F5.720588235294118
sg5
F3.2128903435787586
sg6
I27
sg7
I544
sg8
S'Answer30.txt'
p357
sa(dp358
g4
F4.947368421052632
sg5
F3.444655421015154
sg6
I8
sg7
I152
sg8
S'Answer31.txt'
p359
sa(dp360
g4
F4.97410071942446
sg5
F2.845552838006068
sg6
I32
sg7
I695
sg8
S'Answer32.txt'
p361
sa(dp362
g4
F4.580985915492958
sg5
F2.7251678614428627
sg6
I15
sg7
I284
sg8
S'Answer33.txt'
p363
sa(dp364
g4
F5.237864077669903
sg5
F2.7662535213953063
sg6
I22
sg7
I412
sg8
S'Answer34.txt'
p365
sa(dp366
g4
F4.900990099009901
sg5
F2.923123754658786
sg6
I13
sg7
I303
sg8
S'Answer35.txt'
p367
sa(dp368
g4
F5.346733668341709
sg5
F8.268446828103079
sg6
I24
sg7
I398
sg8
S'Answer36.txt'
p369
sag368
a(dp370
g4
F4.954545454545454
sg5
F2.812564896475267
sg6
I18
sg7
I286
sg8
S'Answer37.txt'
p371
sa(dp372
g4
F5.126126126126126
sg5
F2.9589294299593467
sg6
I29
sg7
I555
sg8
S'Answer38.txt'
p373
sa(dp374
g4
F5.100985221674877
sg5
F2.7600508695923116
sg6
I25
sg7
I406
sg8
S'Answer39.txt'
p375
sa(dp376
g4
F4.696969696969697
sg5
F2.630645139042241
sg6
I18
sg7
I330
sg8
S'Answer40.txt'
p377
sa(dp378
g4
F5.15546218487395
sg5
F2.9257247174878955
sg6
I13
sg7
I238
sg8
S'Answer41.txt'
p379
sa(dp380
g4
F5.118181818181818
sg5
F3.4647099266797294
sg6
I24
sg7
I440
sg8
S'Answer43.txt'
p381
sa(dp382
g4
F5.365111561866126
sg5
F3.01661387444148
sg6
I24
sg7
I493
sg8
S'Answer44.txt'
p383
sa(dp384
g4
F5.161434977578475
sg5
F2.966319412274671
sg6
I25
sg7
I446
sg8
S'Answer45.txt'
p385
sa(dp386
g4
F4.818666666666667
sg5
F2.9128081906564924
sg6
I39
sg7
I750
sg8
S'Answer46.txt'
p387
sa(dp388
g4
F5.964485981308411
sg5
F5.764915677888792
sg6
I30
sg7
I535
sg8
S'Answer47.txt'
p389
sa(dp390
g4
F5.315693430656935
sg5
F5.508186514610589
sg6
I29
sg7
I548
sg8
S'Answer48.txt'
p391
sag390
a(dp392
g4
F4.696048632218845
sg5
F2.8719399537488317
sg6
I12
sg7
I329
sg8
S'Answer49.txt'
p393
sa(dp394
g4
F5.1068181818181815
sg5
F2.718614096061776
sg6
I25
sg7
I440
sg8
S'Answer50.txt'
p395
sasS'Alvika-Jaju'
p396
(lp397
(dp398
g4
F4.591489361702128
sg5
F2.533841569820547
sg6
I11
sg7
I235
sg8
S'Answer1.txt'
p399
sa(dp400
g4
F4.707182320441989
sg5
F2.927749369408891
sg6
I32
sg7
I362
sg8
S'Answer2.txt'
p401
sa(dp402
g4
F4.424083769633508
sg5
F2.4351797880880337
sg6
I21
sg7
I191
sg8
S'Answer6.txt'
p403
sa(dp404
g4
F4.4447300771208225
sg5
F2.422082267531224
sg6
I37
sg7
I389
sg8
S'Answer7.txt'
p405
sa(dp406
g4
F4.762589928057554
sg5
F3.004990414792047
sg6
I10
sg7
I139
sg8
S'Answer8.txt'
p407
sa(dp408
g4
F4.900523560209424
sg5
F2.6734196267615373
sg6
I11
sg7
I191
sg8
S'Answer9.txt'
p409
sa(dp410
g4
F4.6
sg5
F2.600334426652614
sg6
I5
sg7
I115
sg8
S'Answer11.txt'
p411
sa(dp412
g4
F4.6923076923076925
sg5
F2.9409038045092055
sg6
I18
sg7
I156
sg8
S'Answer12.txt'
p413
sa(dp414
g4
F4.582554517133956
sg5
F2.7762131053882464
sg6
I29
sg7
I321
sg8
S'Answer13.txt'
p415
sa(dp416
g4
F4.481327800829876
sg5
F2.4665109456971206
sg6
I26
sg7
I241
sg8
S'Answer14.txt'
p417
sa(dp418
g4
F4.4603174603174605
sg5
F2.5081374241401497
sg6
I12
sg7
I189
sg8
S'Answer15.txt'
p419
sa(dp420
g4
F4.33939393939394
sg5
F2.5595855954762143
sg6
I5
sg7
I165
sg8
S'Answer18.txt'
p421
sa(dp422
g4
F4.289795918367347
sg5
F2.1423089677851612
sg6
I11
sg7
I245
sg8
S'Answer19.txt'
p423
sa(dp424
g4
F4.926282051282051
sg5
F2.5377309716653644
sg6
I15
sg7
I312
sg8
S'Answer21.txt'
p425
sa(dp426
g4
F4.582159624413146
sg5
F2.4948888659403816
sg6
I18
sg7
I213
sg8
S'Answer24.txt'
p427
sa(dp428
g4
F4.7650273224043715
sg5
F2.6477087474409524
sg6
I6
sg7
I183
sg8
S'Answer26.txt'
p429
sa(dp430
g4
F4.407035175879397
sg5
F2.6618750246778826
sg6
I9
sg7
I199
sg8
S'Answer28.txt'
p431
sa(dp432
g4
F4.616216216216216
sg5
F2.508096458500439
sg6
I10
sg7
I185
sg8
S'Answer29.txt'
p433
sa(dp434
g4
F4.449275362318841
sg5
F2.380696718652877
sg6
I5
sg7
I138
sg8
S'Answer30.txt'
p435
sa(dp436
g4
F4.566265060240964
sg5
F2.7704381995080256
sg6
I13
sg7
I249
sg8
S'Answer31.txt'
p437
sa(dp438
g4
F4.274447949526814
sg5
F2.2077602081930565
sg6
I19
sg7
I317
sg8
S'Answer32.txt'
p439
sa(dp440
g4
F4.553571428571429
sg5
F2.7030822983336322
sg6
I19
sg7
I168
sg8
S'Answer35.txt'
p441
sa(dp442
g4
F4.363636363636363
sg5
F2.54389562652985
sg6
I23
sg7
I275
sg8
S'Answer36.txt'
p443
sa(dp444
g4
F4.628205128205129
sg5
F2.4131529240488465
sg6
I11
sg7
I156
sg8
S'Answer37.txt'
p445
sa(dp446
g4
F4.162679425837321
sg5
F1.9692236095743243
sg6
I19
sg7
I209
sg8
S'Answer38.txt'
p447
sa(dp448
g4
F4.532051282051282
sg5
F2.5593465507040936
sg6
I27
sg7
I312
sg8
S'Answer39.txt'
p449
sa(dp450
g4
F4.36986301369863
sg5
F2.0507723190355436
sg6
I21
sg7
I219
sg8
S'Answer41.txt'
p451
sa(dp452
g4
F4.095808383233533
sg5
F2.0096579174871865
sg6
I9
sg7
I167
sg8
S'Answer42.txt'
p453
sa(dp454
g4
F4.050632911392405
sg5
F2.0151246729481618
sg6
I15
sg7
I158
sg8
S'Answer45.txt'
p455
sa(dp456
g4
F4.445026178010472
sg5
F2.4389646490927532
sg6
I41
sg7
I382
sg8
S'Answer48.txt'
p457
sa(dp458
g4
F4.399193548387097
sg5
F2.2463948166376357
sg6
I23
sg7
I248
sg8
S'Answer49.txt'
p459
sasS'Abhijeet-Borkar'
p460
(lp461
(dp462
g4
F5.005524861878453
sg5
F2.7861084715293742
sg6
I5
sg7
I181
sg8
S'Answer1.txt'
p463
sa(dp464
g4
F4.72093023255814
sg5
F2.8256212712916633
sg6
I5
sg7
I129
sg8
S'Answer2.txt'
p465
sa(dp466
g4
F4.900584795321637
sg5
F2.990540585136366
sg6
I15
sg7
I342
sg8
S'Answer3.txt'
p467
sa(dp468
g4
F5.382629107981221
sg5
F3.082066655967839
sg6
I18
sg7
I426
sg8
S'Answer4.txt'
p469
sa(dp470
g4
F4.63302752293578
sg5
F2.5509866789028397
sg6
I1
sg7
I109
sg8
S'Answer5.txt'
p471
sa(dp472
g4
F4.714285714285714
sg5
F2.803059552906941
sg6
I4
sg7
I98
sg8
S'Answer6.txt'
p473
sa(dp474
g4
F5.186495176848875
sg5
F3.3341183168779986
sg6
I8
sg7
I311
sg8
S'Answer7.txt'
p475
sa(dp476
g4
F5.3076923076923075
sg5
F3.827390127407542
sg6
I3
sg7
I156
sg8
S'Answer8.txt'
p477
sa(dp478
g4
F4.307262569832402
sg5
F2.3014454513835307
sg6
I5
sg7
I179
sg8
S'Answer9.txt'
p479
sa(dp480
g4
F4.666115702479339
sg5
F2.568259973678302
sg6
I19
sg7
I605
sg8
S'Answer10.txt'
p481
sa(dp482
g4
F5.806451612903226
sg5
F4.157537692795284
sg6
I5
sg7
I186
sg8
S'Answer11.txt'
p483
sa(dp484
g4
F4.418478260869565
sg5
F2.798269237901935
sg6
I5
sg7
I184
sg8
S'Answer12.txt'
p485
sa(dp486
g4
F4.827893175074184
sg5
F3.0949455320175203
sg6
I33
sg7
I674
sg8
S'Answer13.txt'
p487
sag486
a(dp488
g4
F5.246376811594203
sg5
F2.9344157938591002
sg6
I7
sg7
I207
sg8
S'Answer14.txt'
p489
sa(dp490
g4
F4.833333333333333
sg5
F3.086419553962557
sg6
I10
sg7
I186
sg8
S'Answer15.txt'
p491
sa(dp492
g4
F4.532258064516129
sg5
F2.9018963503244497
sg6
I5
sg7
I186
sg8
S'Answer16.txt'
p493
sa(dp494
g4
F5.018610421836228
sg5
F3.0350967795330774
sg6
I29
sg7
I806
sg8
S'Answer17.txt'
p495
sa(dp496
g4
F4.574011299435028
sg5
F2.7176764460489236
sg6
I34
sg7
I885
sg8
S'Answer18.txt'
p497
sa(dp498
g4
F4.46969696969697
sg5
F2.7918696731418176
sg6
I4
sg7
I132
sg8
S'Answer19.txt'
p499
sa(dp500
g4
F4.585774058577406
sg5
F2.6560041965416223
sg6
I14
sg7
I478
sg8
S'Answer20.txt'
p501
sa(dp502
g4
F4.753371868978806
sg5
F2.5033432748030235
sg6
I21
sg7
I519
sg8
S'Answer21.txt'
p503
sa(dp504
g4
F4.846153846153846
sg5
F2.659414448163465
sg6
I5
sg7
I104
sg8
S'Answer22.txt'
p505
sa(dp506
g4
F4.458646616541353
sg5
F2.58541681808571
sg6
I3
sg7
I133
sg8
S'Answer23.txt'
p507
sa(dp508
g4
F4.723785166240409
sg5
F2.992816975268049
sg6
I16
sg7
I391
sg8
S'Answer24.txt'
p509
sa(dp510
g4
F5.0
sg5
F2.8585710716070314
sg6
I4
sg7
I140
sg8
S'Answer25.txt'
p511
sa(dp512
g4
F4.966292134831461
sg5
F3.0407326076229926
sg6
I4
sg7
I89
sg8
S'Answer27.txt'
p513
sa(dp514
g4
F4.770053475935829
sg5
F2.6849872777412354
sg6
I20
sg7
I374
sg8
S'Answer28.txt'
p515
sa(dp516
g4
F4.465648854961832
sg5
F2.741531610496885
sg6
I5
sg7
I131
sg8
S'Answer29.txt'
p517
sa(dp518
g4
F4.744645799011532
sg5
F2.9435714723660307
sg6
I16
sg7
I607
sg8
S'Answer30.txt'
p519
sa(dp520
g4
F4.4787234042553195
sg5
F2.656700574918331
sg6
I3
sg7
I94
sg8
S'Answer31.txt'
p521
sa(dp522
g4
F4.593123209169055
sg5
F2.4833101901652967
sg6
I7
sg7
I349
sg8
S'Answer32.txt'
p523
sa(dp524
g4
F5.068601583113456
sg5
F3.1972185961479425
sg6
I14
sg7
I379
sg8
S'Answer33.txt'
p525
sa(dp526
g4
F4.782258064516129
sg5
F2.603225306791335
sg6
I17
sg7
I620
sg8
S'Answer34.txt'
p527
sa(dp528
g4
F5.540880503144654
sg5
F3.9073260305470994
sg6
I8
sg7
I159
sg8
S'Answer35.txt'
p529
sa(dp530
g4
F4.5136612021857925
sg5
F2.478008021389054
sg6
I6
sg7
I183
sg8
S'Answer36.txt'
p531
sa(dp532
g4
F5.2875
sg5
F2.569989056396933
sg6
I3
sg7
I80
sg8
S'Answer37.txt'
p533
sa(dp534
g4
F4.970760233918129
sg5
F2.9128208240533007
sg6
I7
sg7
I171
sg8
S'Answer38.txt'
p535
sa(dp536
g4
F4.704663212435233
sg5
F3.069291156380626
sg6
I6
sg7
I193
sg8
S'Answer39.txt'
p537
sa(dp538
g4
F4.838028169014085
sg5
F2.5369679620604315
sg6
I17
sg7
I426
sg8
S'Answer40.txt'
p539
sa(dp540
g4
F4.903954802259887
sg5
F3.074744242396312
sg6
I5
sg7
I177
sg8
S'Answer41.txt'
p541
sa(dp542
g4
F5.151832460732984
sg5
F3.2957189895066095
sg6
I6
sg7
I191
sg8
S'Answer42.txt'
p543
sa(dp544
g4
F4.234285714285714
sg5
F2.118482321601664
sg6
I8
sg7
I175
sg8
S'Answer43.txt'
p545
sa(dp546
g4
F4.893719806763285
sg5
F3.171172869896422
sg6
I10
sg7
I207
sg8
S'Answer44.txt'
p547
sa(dp548
g4
F4.655430711610487
sg5
F2.580755358945749
sg6
I10
sg7
I267
sg8
S'Answer45.txt'
p549
sa(dp550
g4
F4.539877300613497
sg5
F2.3135912083649064
sg6
I28
sg7
I652
sg8
S'Answer46.txt'
p551
sag550
a(dp552
g4
F5.043478260869565
sg5
F2.873843977332304
sg6
I7
sg7
I230
sg8
S'Answer47.txt'
p553
sa(dp554
g4
F5.039408866995074
sg5
F3.127570650317791
sg6
I5
sg7
I203
sg8
S'Answer48.txt'
p555
sa(dp556
g4
F4.851851851851852
sg5
F2.827165884948225
sg6
I5
sg7
I135
sg8
S'Answer50.txt'
p557
sasS'Tatiana-Est\xc3\xa9vez'
p558
(lp559
(dp560
g4
F4.571428571428571
sg5
F2.3243908225652965
sg6
I4
sg7
I133
sg8
S'Answer1.txt'
p561
sa(dp562
g4
F4.5978260869565215
sg5
F2.5326553457170276
sg6
I4
sg7
I92
sg8
S'Answer3.txt'
p563
sa(dp564
g4
F4.860927152317881
sg5
F3.47372299676721
sg6
I5
sg7
I151
sg8
S'Answer4.txt'
p565
sa(dp566
g4
F4.481012658227848
sg5
F2.511714794878241
sg6
I21
sg7
I474
sg8
S'Answer6.txt'
p567
sag566
a(dp568
g4
F4.129032258064516
sg5
F2.067286447743497
sg6
I6
sg7
I186
sg8
S'Answer7.txt'
p569
sa(dp570
g4
F4.634615384615385
sg5
F2.4842381403128986
sg6
I16
sg7
I364
sg8
S'Answer8.txt'
p571
sa(dp572
g4
F4.244635193133047
sg5
F2.3612172190054874
sg6
I38
sg7
I932
sg8
S'Answer10.txt'
p573
sa(dp574
g4
F4.5550660792951545
sg5
F2.706707017964093
sg6
I14
sg7
I454
sg8
S'Answer11.txt'
p575
sa(dp576
g4
F4.718527315914489
sg5
F2.8730649739025655
sg6
I37
sg7
I842
sg8
S'Answer12.txt'
p577
sa(dp578
g4
F4.78125
sg5
F2.8401992484389775
sg6
I10
sg7
I288
sg8
S'Answer13.txt'
p579
sa(dp580
g4
F4.476923076923077
sg5
F2.416445953329991
sg6
I9
sg7
I195
sg8
S'Answer14.txt'
p581
sa(dp582
g4
F4.206185567010309
sg5
F2.430214212822411
sg6
I23
sg7
I582
sg8
S'Answer15.txt'
p583
sag582
a(dp584
g4
F4.569148936170213
sg5
F2.611452949936668
sg6
I7
sg7
I188
sg8
S'Answer16.txt'
p585
sa(dp586
g4
F5.1344537815126055
sg5
F2.9015335549589825
sg6
I13
sg7
I238
sg8
S'Answer17.txt'
p587
sa(dp588
g4
F4.845744680851064
sg5
F2.890305324871812
sg6
I8
sg7
I188
sg8
S'Answer18.txt'
p589
sa(dp590
g4
F4.511210762331839
sg5
F2.5759511918945943
sg6
I8
sg7
I223
sg8
S'Answer20.txt'
p591
sa(dp592
g4
F4.427631578947368
sg5
F2.579274616723946
sg6
I5
sg7
I152
sg8
S'Answer22.txt'
p593
sa(dp594
g4
F4.647865853658536
sg5
F2.603836584276077
sg6
I24
sg7
I656
sg8
S'Answer23.txt'
p595
sag594
a(dp596
g4
F4.832214765100671
sg5
F2.9908196999093537
sg6
I6
sg7
I149
sg8
S'Answer25.txt'
p597
sa(dp598
g4
F4.02536231884058
sg5
F2.152536811252603
sg6
I9
sg7
I276
sg8
S'Answer28.txt'
p599
sa(dp600
g4
F4.2633053221288515
sg5
F2.2955622147021657
sg6
I11
sg7
I357
sg8
S'Answer30.txt'
p601
sa(dp602
g4
F4.244094488188976
sg5
F2.292461234297546
sg6
I7
sg7
I127
sg8
S'Answer32.txt'
p603
sa(dp604
g4
F4.515822784810126
sg5
F2.4539563032407554
sg6
I20
sg7
I632
sg8
S'Answer33.txt'
p605
sa(dp606
g4
F5.404255319148936
sg5
F4.992162258973411
sg6
I3
sg7
I94
sg8
S'Answer34.txt'
p607
sa(dp608
g4
F4.591025641025641
sg5
F2.7685359408453967
sg6
I19
sg7
I780
sg8
S'Answer35.txt'
p609
sa(dp610
g4
F4.257731958762887
sg5
F2.3343174923214747
sg6
I4
sg7
I97
sg8
S'Answer36.txt'
p611
sa(dp612
g4
F4.389830508474576
sg5
F2.8848931428822304
sg6
I4
sg7
I118
sg8
S'Answer38.txt'
p613
sa(dp614
g4
F5.062730627306273
sg5
F2.885217175973172
sg6
I9
sg7
I271
sg8
S'Answer39.txt'
p615
sa(dp616
g4
F4.753086419753086
sg5
F2.5387411296537934
sg6
I7
sg7
I162
sg8
S'Answer40.txt'
p617
sa(dp618
g4
F4.384831460674158
sg5
F2.3810334893093157
sg6
I19
sg7
I356
sg8
S'Answer41.txt'
p619
sa(dp620
g4
F4.460176991150442
sg5
F2.3762668655817563
sg6
I6
sg7
I113
sg8
S'Answer43.txt'
p621
sa(dp622
g4
F4.783057851239669
sg5
F2.728113913600174
sg6
I19
sg7
I484
sg8
S'Answer44.txt'
p623
sa(dp624
g4
F4.659133709981168
sg5
F2.617233628708767
sg6
I22
sg7
I531
sg8
S'Answer45.txt'
p625
sa(dp626
g4
F4.6371681415929205
sg5
F2.335042577552932
sg6
I5
sg7
I113
sg8
S'Answer46.txt'
p627
sa(dp628
g4
F4.989517819706499
sg5
F2.8012229992649926
sg6
I16
sg7
I477
sg8
S'Answer47.txt'
p629
sa(dp630
g4
F4.276785714285714
sg5
F3.015465557009432
sg6
I5
sg7
I112
sg8
S'Answer48.txt'
p631
sa(dp632
g4
F4.654545454545454
sg5
F2.490356054510464
sg6
I16
sg7
I495
sg8
S'Answer49.txt'
p633
sa(dp634
g4
F4.121212121212121
sg5
F2.4184590104667096
sg6
I6
sg7
I132
sg8
S'Answer50.txt'
p635
sasS'Xu-Beixi'
p636
(lp637
(dp638
g4
F4.67910447761194
sg5
F2.669900624984643
sg6
I8
sg7
I134
sg8
S'Answer1.txt'
p639
sa(dp640
g4
F5.142857142857143
sg5
F3.138012795427573
sg6
I13
sg7
I385
sg8
S'Answer2.txt'
p641
sa(dp642
g4
F4.876106194690266
sg5
F2.8830684961208335
sg6
I10
sg7
I226
sg8
S'Answer3.txt'
p643
sa(dp644
g4
F4.75
sg5
F2.6035378028576983
sg6
I5
sg7
I88
sg8
S'Answer5.txt'
p645
sa(dp646
g4
F4.96137339055794
sg5
F2.5597179637047005
sg6
I15
sg7
I233
sg8
S'Answer6.txt'
p647
sa(dp648
g4
F5.166051660516605
sg5
F2.961952878325338
sg6
I12
sg7
I271
sg8
S'Answer7.txt'
p649
sa(dp650
g4
F4.7556390977443606
sg5
F2.7013756877916246
sg6
I15
sg7
I266
sg8
S'Answer8.txt'
p651
sa(dp652
g4
F5.08256880733945
sg5
F3.2527432046439344
sg6
I7
sg7
I218
sg8
S'Answer9.txt'
p653
sa(dp654
g4
F4.91764705882353
sg5
F2.6146424703927584
sg6
I6
sg7
I255
sg8
S'Answer10.txt'
p655
sa(dp656
g4
F5.081521739130435
sg5
F2.96059003181527
sg6
I12
sg7
I368
sg8
S'Answer12.txt'
p657
sa(dp658
g4
F5.4035087719298245
sg5
F3.5418615176425194
sg6
I3
sg7
I171
sg8
S'Answer13.txt'
p659
sa(dp660
g4
F5.055045871559633
sg5
F2.9918386307405056
sg6
I2
sg7
I109
sg8
S'Answer14.txt'
p661
sa(dp662
g4
F4.687096774193549
sg5
F2.8458506223672964
sg6
I12
sg7
I310
sg8
S'Answer16.txt'
p663
sa(dp664
g4
F4.7749077490774905
sg5
F2.9279599919973283
sg6
I10
sg7
I271
sg8
S'Answer17.txt'
p665
sa(dp666
g4
F5.009090909090909
sg5
F2.852416693215692
sg6
I5
sg7
I110
sg8
S'Answer18.txt'
p667
sa(dp668
g4
F4.71484375
sg5
F3.466459600671258
sg6
I7
sg7
I256
sg8
S'Answer19.txt'
p669
sa(dp670
g4
F4.42570281124498
sg5
F2.3617394566455534
sg6
I14
sg7
I249
sg8
S'Answer20.txt'
p671
sa(dp672
g4
F5.514792899408284
sg5
F3.6796361231145482
sg6
I5
sg7
I169
sg8
S'Answer22.txt'
p673
sa(dp674
g4
F5.6992481203007515
sg5
F3.73961712970488
sg6
I9
sg7
I266
sg8
S'Answer23.txt'
p675
sa(dp676
g4
F5.71578947368421
sg5
F5.851968913639664
sg6
I3
sg7
I95
sg8
S'Answer24.txt'
p677
sa(dp678
g4
F5.660406885758999
sg5
F3.363550432048754
sg6
I26
sg7
I639
sg8
S'Answer27.txt'
p679
sag678
a(dp680
g4
F4.744939271255061
sg5
F2.826946088377955
sg6
I30
sg7
I494
sg8
S'Answer28.txt'
p681
sag680
a(dp682
g4
F5.977777777777778
sg5
F4.126637348067933
sg6
I4
sg7
I135
sg8
S'Answer30.txt'
p683
sa(dp684
g4
F5.271676300578035
sg5
F3.0385112093272104
sg6
I8
sg7
I346
sg8
S'Answer31.txt'
p685
sa(dp686
g4
F4.94017094017094
sg5
F4.499364814222472
sg6
I6
sg7
I117
sg8
S'Answer32.txt'
p687
sa(dp688
g4
F5.660194174757281
sg5
F6.162135233984065
sg6
I3
sg7
I103
sg8
S'Answer34.txt'
p689
sa(dp690
g4
F4.57201646090535
sg5
F2.695438695471653
sg6
I12
sg7
I243
sg8
S'Answer35.txt'
p691
sa(dp692
g4
F4.916666666666667
sg5
F2.678878289301119
sg6
I5
sg7
I120
sg8
S'Answer36.txt'
p693
sa(dp694
g4
F5.596707818930041
sg5
F3.3520937295100173
sg6
I6
sg7
I243
sg8
S'Answer38.txt'
p695
sa(dp696
g4
F4.784090909090909
sg5
F2.76112980678514
sg6
I21
sg7
I352
sg8
S'Answer41.txt'
p697
sa(dp698
g4
F4.911111111111111
sg5
F2.7432521026630847
sg6
I3
sg7
I90
sg8
S'Answer42.txt'
p699
sa(dp700
g4
F4.96875
sg5
F2.82272447070202
sg6
I4
sg7
I96
sg8
S'Answer44.txt'
p701
sa(dp702
g4
F5.216748768472907
sg5
F3.4686939480668566
sg6
I9
sg7
I203
sg8
S'Answer45.txt'
p703
sa(dp704
g4
F4.9636871508379885
sg5
F2.736331155512465
sg6
I14
sg7
I358
sg8
S'Answer48.txt'
p705
sa(dp706
g4
F5.581967213114754
sg5
F3.931462339902616
sg6
I4
sg7
I122
sg8
S'Answer49.txt'
p707
sa(dp708
g4
F5.185
sg5
F3.1322156694582826
sg6
I6
sg7
I200
sg8
S'Answer50.txt'
p709
sasS'Tejasvita-Apte'
p710
(lp711
(dp712
g4
F4.321917808219178
sg5
F2.602777577230178
sg6
I59
sg7
I730
sg8
S'Answer2.txt'
p713
sag712
a(dp714
g4
F5.146245059288537
sg5
F3.307429015252504
sg6
I32
sg7
I759
sg8
S'Answer3.txt'
p715
sa(dp716
g4
F4.6909090909090905
sg5
F2.913122206797292
sg6
I12
sg7
I110
sg8
S'Answer4.txt'
p717
sa(dp718
g4
F4.506147540983607
sg5
F2.634100756976427
sg6
I28
sg7
I488
sg8
S'Answer5.txt'
p719
sa(dp720
g4
F4.093525179856115
sg5
F2.278747877597201
sg6
I15
sg7
I139
sg8
S'Answer6.txt'
p721
sa(dp722
g4
F4.396396396396397
sg5
F2.5158212145163334
sg6
I10
sg7
I111
sg8
S'Answer7.txt'
p723
sa(dp724
g4
F4.317120622568093
sg5
F2.568633506459918
sg6
I41
sg7
I514
sg8
S'Answer8.txt'
p725
sa(dp726
g4
F4.7330827067669174
sg5
F2.688075080755023
sg6
I15
sg7
I266
sg8
S'Answer9.txt'
p727
sa(dp728
g4
F4.601851851851852
sg5
F2.5274046665349217
sg6
I12
sg7
I108
sg8
S'Answer10.txt'
p729
sa(dp730
g4
F4.995260663507109
sg5
F2.9134394102945325
sg6
I33
sg7
I633
sg8
S'Answer11.txt'
p731
sag730
a(dp732
g4
F4.254237288135593
sg5
F2.4271991275359532
sg6
I14
sg7
I295
sg8
S'Answer12.txt'
p733
sa(dp734
g4
F4.381048387096774
sg5
F2.672659457975122
sg6
I37
sg7
I496
sg8
S'Answer13.txt'
p735
sag734
a(dp736
g4
F4.673267326732673
sg5
F2.8601353941886862
sg6
I12
sg7
I101
sg8
S'Answer14.txt'
p737
sa(dp738
g4
F4.947852760736196
sg5
F2.869403593859808
sg6
I28
sg7
I326
sg8
S'Answer15.txt'
p739
sa(dp740
g4
F4.608247422680412
sg5
F2.9177382653058737
sg6
I26
sg7
I291
sg8
S'Answer16.txt'
p741
sa(dp742
g4
F4.550813008130081
sg5
F2.626370983366555
sg6
I51
sg7
I492
sg8
S'Answer17.txt'
p743
sa(dp744
g4
F5.08300395256917
sg5
F2.747083913471222
sg6
I33
sg7
I506
sg8
S'Answer19.txt'
p745
sa(dp746
g4
F4.369942196531792
sg5
F2.363405619826269
sg6
I14
sg7
I173
sg8
S'Answer20.txt'
p747
sa(dp748
g4
F4.428571428571429
sg5
F2.7769704042085763
sg6
I4
sg7
I105
sg8
S'Answer21.txt'
p749
sa(dp750
g4
F4.596747967479675
sg5
F2.5939245765513927
sg6
I53
sg7
I615
sg8
S'Answer22.txt'
p751
sa(dp752
g4
F4.97972972972973
sg5
F3.875197631568061
sg6
I53
sg7
I740
sg8
S'Answer23.txt'
p753
sa(dp754
g4
F4.363636363636363
sg5
F2.5489486507993746
sg6
I10
sg7
I143
sg8
S'Answer24.txt'
p755
sa(dp756
g4
F4.540816326530612
sg5
F2.5347987643574132
sg6
I21
sg7
I294
sg8
S'Answer25.txt'
p757
sa(dp758
g4
F4.483370288248337
sg5
F2.412378129987928
sg6
I46
sg7
I451
sg8
S'Answer26.txt'
p759
sa(dp760
g4
F4.097938144329897
sg5
F2.3694133155892
sg6
I19
sg7
I194
sg8
S'Answer27.txt'
p761
sa(dp762
g4
F4.717277486910994
sg5
F2.7626273482700077
sg6
I16
sg7
I382
sg8
S'Answer28.txt'
p763
sa(dp764
g4
F4.3768115942028984
sg5
F2.5458203841338403
sg6
I24
sg7
I276
sg8
S'Answer29.txt'
p765
sa(dp766
g4
F3.806282722513089
sg5
F2.0540248584233023
sg6
I16
sg7
I191
sg8
S'Answer30.txt'
p767
sa(dp768
g4
F4.762312633832977
sg5
F2.643166901356616
sg6
I40
sg7
I467
sg8
S'Answer31.txt'
p769
sa(dp770
g4
F4.816091954022989
sg5
F3.0570391190582606
sg6
I8
sg7
I87
sg8
S'Answer32.txt'
p771
sa(dp772
g4
F3.916201117318436
sg5
F2.2716900124410575
sg6
I21
sg7
I179
sg8
S'Answer33.txt'
p773
sa(dp774
g4
F4.204878048780488
sg5
F2.1429352128777293
sg6
I15
sg7
I205
sg8
S'Answer34.txt'
p775
sa(dp776
g4
F5.041958041958042
sg5
F2.9680681147682337
sg6
I11
sg7
I143
sg8
S'Answer35.txt'
p777
sa(dp778
g4
F4.78125
sg5
F3.6617480030034835
sg6
I12
sg7
I160
sg8
S'Answer36.txt'
p779
sa(dp780
g4
F4.8469945355191255
sg5
F3.177547467320347
sg6
I19
sg7
I183
sg8
S'Answer37.txt'
p781
sa(dp782
g4
F4.792079207920792
sg5
F2.7288950060642074
sg6
I27
sg7
I404
sg8
S'Answer38.txt'
p783
sa(dp784
g4
F4.413793103448276
sg5
F2.5933235416500917
sg6
I13
sg7
I174
sg8
S'Answer39.txt'
p785
sa(dp786
g4
F4.895104895104895
sg5
F3.6579509849883767
sg6
I8
sg7
I143
sg8
S'Answer40.txt'
p787
sa(dp788
g4
F5.972477064220183
sg5
F3.810797589458482
sg6
I10
sg7
I109
sg8
S'Answer41.txt'
p789
sa(dp790
g4
F4.406349206349207
sg5
F2.3394391551383817
sg6
I22
sg7
I315
sg8
S'Answer42.txt'
p791
sa(dp792
g4
F4.035714285714286
sg5
F2.3258200221664214
sg6
I34
sg7
I336
sg8
S'Answer43.txt'
p793
sa(dp794
g4
F4.680327868852459
sg5
F2.6758372167482105
sg6
I17
sg7
I244
sg8
S'Answer44.txt'
p795
sa(dp796
g4
F4.422442244224422
sg5
F2.4601962630255496
sg6
I31
sg7
I303
sg8
S'Answer45.txt'
p797
sa(dp798
g4
F4.390243902439025
sg5
F2.113195654801265
sg6
I13
sg7
I123
sg8
S'Answer46.txt'
p799
sa(dp800
g4
F4.9037037037037035
sg5
F2.8307153240023686
sg6
I13
sg7
I135
sg8
S'Answer47.txt'
p801
sa(dp802
g4
F4.319148936170213
sg5
F2.319134993405012
sg6
I55
sg7
I658
sg8
S'Answer48.txt'
p803
sag802
a(dp804
g4
F4.3464285714285715
sg5
F3.1152828515077027
sg6
I20
sg7
I280
sg8
S'Answer49.txt'
p805
sasS'Shikhar-Agarwal'
p806
(lp807
(dp808
g4
F4.657657657657658
sg5
F2.5627107533477598
sg6
I4
sg7
I111
sg8
S'Answer1.txt'
p809
sa(dp810
g4
F5.213333333333333
sg5
F2.843909671952016
sg6
I6
sg7
I225
sg8
S'Answer2.txt'
p811
sa(dp812
g4
F4.775510204081633
sg5
F2.753060468071483
sg6
I10
sg7
I343
sg8
S'Answer3.txt'
p813
sa(dp814
g4
F4.67986798679868
sg5
F2.5601330376938107
sg6
I5
sg7
I303
sg8
S'Answer4.txt'
p815
sa(dp816
g4
F4.648936170212766
sg5
F2.6284347207096745
sg6
I2
sg7
I94
sg8
S'Answer5.txt'
p817
sa(dp818
g4
F4.467336683417085
sg5
F2.5779678105773383
sg6
I19
sg7
I398
sg8
S'Answer6.txt'
p819
sa(dp820
g4
F4.976744186046512
sg5
F2.882088810446923
sg6
I16
sg7
I430
sg8
S'Answer7.txt'
p821
sa(dp822
g4
F5.145669291338582
sg5
F3.352992690883768
sg6
I7
sg7
I254
sg8
S'Answer8.txt'
p823
sa(dp824
g4
F5.044585987261146
sg5
F2.8649961906680623
sg6
I5
sg7
I157
sg8
S'Answer9.txt'
p825
sa(dp826
g4
F5.06
sg5
F2.715952871461505
sg6
I12
sg7
I250
sg8
S'Answer10.txt'
p827
sa(dp828
g4
F4.973333333333334
sg5
F2.9798135661294145
sg6
I10
sg7
I375
sg8
S'Answer12.txt'
p829
sa(dp830
g4
F4.702325581395349
sg5
F2.6614813476265775
sg6
I3
sg7
I215
sg8
S'Answer13.txt'
p831
sa(dp832
g4
F4.75
sg5
F2.5913853009110355
sg6
I11
sg7
I360
sg8
S'Answer14.txt'
p833
sa(dp834
g4
F4.7540229885057474
sg5
F2.8311406497703193
sg6
I11
sg7
I435
sg8
S'Answer15.txt'
p835
sa(dp836
g4
F4.951754385964913
sg5
F2.851953238222372
sg6
I11
sg7
I228
sg8
S'Answer16.txt'
p837
sa(dp838
g4
F4.381877022653722
sg5
F2.287533762869555
sg6
I15
sg7
I309
sg8
S'Answer17.txt'
p839
sa(dp840
g4
F5.451048951048951
sg5
F3.3422568300301934
sg6
I10
sg7
I286
sg8
S'Answer18.txt'
p841
sa(dp842
g4
F4.7678916827853
sg5
F2.8462017861042312
sg6
I21
sg7
I517
sg8
S'Answer19.txt'
p843
sa(dp844
g4
F4.787671232876712
sg5
F2.7751561824729167
sg6
I6
sg7
I146
sg8
S'Answer21.txt'
p845
sa(dp846
g4
F4.797029702970297
sg5
F2.2544545758922028
sg6
I12
sg7
I202
sg8
S'Answer22.txt'
p847
sa(dp848
g4
F4.377358490566038
sg5
F2.0942546302659024
sg6
I6
sg7
I159
sg8
S'Answer23.txt'
p849
sa(dp850
g4
F4.736434108527132
sg5
F2.7161666820401007
sg6
I16
sg7
I387
sg8
S'Answer24.txt'
p851
sa(dp852
g4
F4.7655677655677655
sg5
F2.655422496268005
sg6
I12
sg7
I273
sg8
S'Answer25.txt'
p853
sa(dp854
g4
F4.953947368421052
sg5
F2.772844862016051
sg6
I18
sg7
I456
sg8
S'Answer26.txt'
p855
sa(dp856
g4
F4.794478527607362
sg5
F2.8987145772668237
sg6
I14
sg7
I326
sg8
S'Answer27.txt'
p857
sa(dp858
g4
F4.617449664429531
sg5
F2.72102752856797
sg6
I6
sg7
I149
sg8
S'Answer28.txt'
p859
sa(dp860
g4
F4.348837209302325
sg5
F2.408713482602961
sg6
I21
sg7
I301
sg8
S'Answer29.txt'
p861
sa(dp862
g4
F4.441860465116279
sg5
F2.5799073859471973
sg6
I7
sg7
I215
sg8
S'Answer30.txt'
p863
sa(dp864
g4
F5.098646034816247
sg5
F3.4043915921379697
sg6
I12
sg7
I517
sg8
S'Answer31.txt'
p865
sa(dp866
g4
F4.850202429149798
sg5
F2.8007065981464363
sg6
I22
sg7
I494
sg8
S'Answer32.txt'
p867
sa(dp868
g4
F4.523809523809524
sg5
F2.2320470064890388
sg6
I7
sg7
I273
sg8
S'Answer33.txt'
p869
sa(dp870
g4
F4.842281879194631
sg5
F2.5353786953032924
sg6
I9
sg7
I298
sg8
S'Answer34.txt'
p871
sa(dp872
g4
F4.1570247933884295
sg5
F2.374131470465508
sg6
I8
sg7
I121
sg8
S'Answer35.txt'
p873
sa(dp874
g4
F4.634538152610442
sg5
F2.775207920780795
sg6
I12
sg7
I249
sg8
S'Answer36.txt'
p875
sa(dp876
g4
F5.255102040816326
sg5
F3.5297893343214866
sg6
I19
sg7
I490
sg8
S'Answer37.txt'
p877
sa(dp878
g4
F4.690625
sg5
F2.697436210436681
sg6
I12
sg7
I320
sg8
S'Answer38.txt'
p879
sa(dp880
g4
F4.711743772241993
sg5
F2.493872380528235
sg6
I10
sg7
I281
sg8
S'Answer39.txt'
p881
sa(dp882
g4
F4.553299492385787
sg5
F2.429399411199567
sg6
I20
sg7
I394
sg8
S'Answer40.txt'
p883
sa(dp884
g4
F4.456375838926174
sg5
F2.5143433408996305
sg6
I17
sg7
I298
sg8
S'Answer41.txt'
p885
sa(dp886
g4
F4.818181818181818
sg5
F2.5683287908932075
sg6
I4
sg7
I143
sg8
S'Answer43.txt'
p887
sa(dp888
g4
F4.5675675675675675
sg5
F2.375524788651214
sg6
I14
sg7
I259
sg8
S'Answer44.txt'
p889
sa(dp890
g4
F4.785900783289817
sg5
F2.5906257317609676
sg6
I15
sg7
I383
sg8
S'Answer45.txt'
p891
sa(dp892
g4
F4.639455782312925
sg5
F2.687703362294851
sg6
I12
sg7
I294
sg8
S'Answer46.txt'
p893
sa(dp894
g4
F4.71078431372549
sg5
F2.779420410125918
sg6
I16
sg7
I408
sg8
S'Answer47.txt'
p895
sa(dp896
g4
F5.031578947368421
sg5
F2.973400079579104
sg6
I3
sg7
I190
sg8
S'Answer48.txt'
p897
sa(dp898
g4
F4.229411764705882
sg5
F2.0976919265433427
sg6
I16
sg7
I340
sg8
S'Answer49.txt'
p899
sa(dp900
g4
F4.883561643835616
sg5
F2.8223915681578027
sg6
I9
sg7
I146
sg8
S'Answer50.txt'
p901
sasS'Steven-Grimm'
p902
(lp903
(dp904
g4
F5.059322033898305
sg5
F3.073374926472049
sg6
I4
sg7
I236
sg8
S'Answer1.txt'
p905
sa(dp906
g4
F4.625974025974026
sg5
F2.791517885169548
sg6
I10
sg7
I385
sg8
S'Answer2.txt'
p907
sa(dp908
g4
F4.9140625
sg5
F3.117559501612399
sg6
I5
sg7
I128
sg8
S'Answer3.txt'
p909
sa(dp910
g4
F4.95609756097561
sg5
F2.8734316002323
sg6
I5
sg7
I205
sg8
S'Answer4.txt'
p911
sa(dp912
g4
F4.526881720430108
sg5
F2.5969021985859806
sg6
I2
sg7
I93
sg8
S'Answer5.txt'
p913
sa(dp914
g4
F4.7272727272727275
sg5
F2.6643535816161705
sg6
I5
sg7
I231
sg8
S'Answer6.txt'
p915
sa(dp916
g4
F4.330275229357798
sg5
F2.373612760946423
sg6
I4
sg7
I109
sg8
S'Answer7.txt'
p917
sa(dp918
g4
F4.820224719101123
sg5
F2.4244160550384692
sg6
I3
sg7
I89
sg8
S'Answer8.txt'
p919
sa(dp920
g4
F5.035398230088496
sg5
F3.122652615115414
sg6
I3
sg7
I113
sg8
S'Answer9.txt'
p921
sa(dp922
g4
F5.47027027027027
sg5
F3.446962224278448
sg6
I2
sg7
I185
sg8
S'Answer10.txt'
p923
sa(dp924
g4
F4.734246575342466
sg5
F2.710316120574721
sg6
I14
sg7
I365
sg8
S'Answer11.txt'
p925
sa(dp926
g4
F4.942913385826771
sg5
F2.926038576027921
sg6
I10
sg7
I508
sg8
S'Answer12.txt'
p927
sa(dp928
g4
F5.082508250825082
sg5
F3.002164946958077
sg6
I11
sg7
I303
sg8
S'Answer13.txt'
p929
sa(dp930
g4
F4.710280373831775
sg5
F2.7963349816304546
sg6
I10
sg7
I321
sg8
S'Answer15.txt'
p931
sa(dp932
g4
F4.833333333333333
sg5
F2.491799415580111
sg6
I4
sg7
I114
sg8
S'Answer16.txt'
p933
sa(dp934
g4
F4.8599562363238515
sg5
F2.7087011102866474
sg6
I14
sg7
I457
sg8
S'Answer17.txt'
p935
sa(dp936
g4
F5.272058823529412
sg5
F3.3726122528841795
sg6
I4
sg7
I136
sg8
S'Answer19.txt'
p937
sa(dp938
g4
F4.59079283887468
sg5
F2.6464891834286846
sg6
I16
sg7
I391
sg8
S'Answer20.txt'
p939
sa(dp940
g4
F4.709219858156028
sg5
F2.7172655401142114
sg6
I2
sg7
I141
sg8
S'Answer21.txt'
p941
sa(dp942
g4
F4.796680497925311
sg5
F2.735229927600162
sg6
I4
sg7
I241
sg8
S'Answer22.txt'
p943
sa(dp944
g4
F4.762135922330097
sg5
F2.665260748090426
sg6
I5
sg7
I206
sg8
S'Answer23.txt'
p945
sa(dp946
g4
F5.414893617021277
sg5
F2.6793519956030845
sg6
I4
sg7
I94
sg8
S'Answer24.txt'
p947
sa(dp948
g4
F4.754152823920266
sg5
F2.4027996606465134
sg6
I9
sg7
I301
sg8
S'Answer25.txt'
p949
sa(dp950
g4
F4.79874213836478
sg5
F2.841250221346202
sg6
I8
sg7
I159
sg8
S'Answer26.txt'
p951
sa(dp952
g4
F5.072992700729927
sg5
F2.676295065443827
sg6
I6
sg7
I137
sg8
S'Answer27.txt'
p953
sa(dp954
g4
F4.5548245614035086
sg5
F2.607609220419016
sg6
I10
sg7
I456
sg8
S'Answer28.txt'
p955
sa(dp956
g4
F5.320987654320987
sg5
F3.1498663914201512
sg6
I3
sg7
I81
sg8
S'Answer29.txt'
p957
sa(dp958
g4
F4.84070796460177
sg5
F2.792424555295311
sg6
I8
sg7
I339
sg8
S'Answer31.txt'
p959
sa(dp960
g4
F4.685897435897436
sg5
F2.677792065948166
sg6
I8
sg7
I312
sg8
S'Answer32.txt'
p961
sa(dp962
g4
F4.746177370030581
sg5
F2.978995131416753
sg6
I9
sg7
I327
sg8
S'Answer33.txt'
p963
sa(dp964
g4
F4.788571428571428
sg5
F2.589183150678046
sg6
I13
sg7
I350
sg8
S'Answer34.txt'
p965
sa(dp966
g4
F5.20952380952381
sg5
F2.8972737204720342
sg6
I5
sg7
I105
sg8
S'Answer35.txt'
p967
sa(dp968
g4
F4.74
sg5
F2.7590578101953582
sg6
I3
sg7
I100
sg8
S'Answer36.txt'
p969
sa(dp970
g4
F4.723404255319149
sg5
F2.442549484762552
sg6
I2
sg7
I94
sg8
S'Answer37.txt'
p971
sa(dp972
g4
F4.578544061302682
sg5
F2.881862854548497
sg6
I5
sg7
I261
sg8
S'Answer38.txt'
p973
sa(dp974
g4
F5.214545454545455
sg5
F3.137075545027027
sg6
I8
sg7
I275
sg8
S'Answer39.txt'
p975
sa(dp976
g4
F4.722063037249284
sg5
F2.860681043110235
sg6
I10
sg7
I349
sg8
S'Answer41.txt'
p977
sa(dp978
g4
F4.991596638655462
sg5
F3.224110321733949
sg6
I4
sg7
I119
sg8
S'Answer42.txt'
p979
sa(dp980
g4
F5.061946902654867
sg5
F2.783590302223369
sg6
I6
sg7
I226
sg8
S'Answer44.txt'
p981
sa(dp982
g4
F4.834090909090909
sg5
F2.7654066922522778
sg6
I14
sg7
I440
sg8
S'Answer45.txt'
p983
sa(dp984
g4
F4.678030303030303
sg5
F2.6036342430934893
sg6
I11
sg7
I528
sg8
S'Answer49.txt'
p985
sa(dp986
g4
F5.437956204379562
sg5
F5.327057107703924
sg6
I9
sg7
I137
sg8
S'Answer50.txt'
p987
sasS'Robert-Frost-1'
p988
(lp989
(dp990
g4
F5.056338028169014
sg5
F2.4774323597233816
sg6
I1
sg7
I142
sg8
S'Answer3.txt'
p991
sa(dp992
g4
F4.659722222222222
sg5
F2.5904825656312576
sg6
I9
sg7
I144
sg8
S'Answer7.txt'
p993
sa(dp994
g4
F4.482142857142857
sg5
F2.580774187751277
sg6
I9
sg7
I112
sg8
S'Answer8.txt'
p995
sa(dp996
g4
F4.463855421686747
sg5
F2.48766006632802
sg6
I8
sg7
I166
sg8
S'Answer10.txt'
p997
sa(dp998
g4
F4.82258064516129
sg5
F2.2967311521882228
sg6
I10
sg7
I124
sg8
S'Answer16.txt'
p999
sa(dp1000
g4
F5.117647058823529
sg5
F4.6868487629123425
sg6
I6
sg7
I102
sg8
S'Answer18.txt'
p1001
sa(dp1002
g4
F4.734246575342466
sg5
F3.2271204849109902
sg6
I18
sg7
I365
sg8
S'Answer19.txt'
p1003
sa(dp1004
g4
F4.848484848484849
sg5
F2.524080536116218
sg6
I10
sg7
I99
sg8
S'Answer20.txt'
p1005
sa(dp1006
g4
F5.311320754716981
sg5
F3.004283757755984
sg6
I6
sg7
I106
sg8
S'Answer24.txt'
p1007
sa(dp1008
g4
F4.275167785234899
sg5
F2.302199299831231
sg6
I4
sg7
I149
sg8
S'Answer25.txt'
p1009
sa(dp1010
g4
F5.518151815181518
sg5
F3.218987687570071
sg6
I1
sg7
I303
sg8
S'Answer26.txt'
p1011
sa(dp1012
g4
F4.544554455445544
sg5
F2.4757227266622235
sg6
I5
sg7
I101
sg8
S'Answer27.txt'
p1013
sa(dp1014
g4
F4.828571428571428
sg5
F2.9343844746212073
sg6
I11
sg7
I175
sg8
S'Answer28.txt'
p1015
sa(dp1016
g4
F4.444099378881988
sg5
F2.516710480428322
sg6
I16
sg7
I322
sg8
S'Answer30.txt'
p1017
sa(dp1018
g4
F4.266666666666667
sg5
F2.1974732965132673
sg6
I6
sg7
I120
sg8
S'Answer32.txt'
p1019
sa(dp1020
g4
F5.108108108108108
sg5
F2.6418371690837197
sg6
I5
sg7
I111
sg8
S'Answer33.txt'
p1021
sa(dp1022
g4
F5.473053892215569
sg5
F3.207055043336152
sg6
I3
sg7
I167
sg8
S'Answer34.txt'
p1023
sa(dp1024
g4
F4.596153846153846
sg5
F2.65105351787019
sg6
I48
sg7
I884
sg8
S'Answer35.txt'
p1025
sa(dp1026
g4
F4.641456582633054
sg5
F2.6420996035997217
sg6
I24
sg7
I357
sg8
S'Answer39.txt'
p1027
sa(dp1028
g4
F4.627659574468085
sg5
F2.5410838806237335
sg6
I7
sg7
I188
sg8
S'Answer41.txt'
p1029
sa(dp1030
g4
F4.150375939849624
sg5
F2.299055839558072
sg6
I6
sg7
I133
sg8
S'Answer43.txt'
p1031
sa(dp1032
g4
F4.378531073446328
sg5
F2.6719281618602295
sg6
I8
sg7
I177
sg8
S'Answer45.txt'
p1033
sa(dp1034
g4
F4.673076923076923
sg5
F3.06011031630054
sg6
I9
sg7
I208
sg8
S'Answer46.txt'
p1035
sa(dp1036
g4
F4.155038759689923
sg5
F2.1220496615158524
sg6
I4
sg7
I129
sg8
S'Answer47.txt'
p1037
sa(dp1038
g4
F4.924812030075188
sg5
F2.792643558955218
sg6
I10
sg7
I266
sg8
S'Answer48.txt'
p1039
sa(dp1040
g4
F4.683229813664596
sg5
F2.557226662195606
sg6
I15
sg7
I483
sg8
S'Answer49.txt'
p1041
sasS'James-Altucher'
p1042
(lp1043
(dp1044
g4
F4.293921731890092
sg5
F2.424075337010537
sg6
I56
sg7
I1201
sg8
S'Answer1.txt'
p1045
sag1044
a(dp1046
g4
F4.263513513513513
sg5
F2.40146770011221
sg6
I30
sg7
I740
sg8
S'Answer2.txt'
p1047
sag1046
a(dp1048
g4
F4.511771995043371
sg5
F2.728444452007696
sg6
I57
sg7
I807
sg8
S'Answer3.txt'
p1049
sag1048
a(dp1050
g4
F4.477586206896552
sg5
F2.538907116461065
sg6
I55
sg7
I580
sg8
S'Answer4.txt'
p1051
sag1050
a(dp1052
g4
F4.251396648044692
sg5
F2.3906480785749245
sg6
I51
sg7
I537
sg8
S'Answer5.txt'
p1053
sag1052
a(dp1054
g4
F4.262842465753424
sg5
F2.332451852968425
sg6
I118
sg7
I1168
sg8
S'Answer6.txt'
p1055
sag1054
a(dp1056
g4
F4.587948874010956
sg5
F2.7095154105514023
sg6
I68
sg7
I1643
sg8
S'Answer7.txt'
p1057
sag1056
a(dp1058
g4
F4.366666666666666
sg5
F2.6252604322552004
sg6
I30
sg7
I870
sg8
S'Answer9.txt'
p1059
sag1058
a(dp1060
g4
F4.503731343283582
sg5
F2.5720920898887645
sg6
I22
sg7
I268
sg8
S'Answer10.txt'
p1061
sa(dp1062
g4
F4.371715610510046
sg5
F2.4842945302941506
sg6
I130
sg7
I2588
sg8
S'Answer11.txt'
p1063
sag1062
a(dp1064
g4
F4.457013574660634
sg5
F2.4242754470675694
sg6
I28
sg7
I442
sg8
S'Answer12.txt'
p1065
sa(dp1066
g4
F4.581270182992465
sg5
F2.6304735033167157
sg6
I48
sg7
I929
sg8
S'Answer13.txt'
p1067
sag1066
a(dp1068
g4
F4.699115044247788
sg5
F2.740663816469728
sg6
I40
sg7
I452
sg8
S'Answer14.txt'
p1069
sag1068
a(dp1070
g4
F4.185741088180112
sg5
F2.2274981263619305
sg6
I39
sg7
I533
sg8
S'Answer15.txt'
p1071
sag1070
a(dp1072
g4
F4.050122249388753
sg5
F2.330552099865947
sg6
I49
sg7
I818
sg8
S'Answer17.txt'
p1073
sag1072
a(dp1074
g4
F4.431111111111111
sg5
F2.5789882215538684
sg6
I48
sg7
I675
sg8
S'Answer18.txt'
p1075
sa(dp1076
g4
F4.237193763919822
sg5
F2.2555247016170696
sg6
I68
sg7
I898
sg8
S'Answer19.txt'
p1077
sa(dp1078
g4
F4.292158968850698
sg5
F2.507675170119136
sg6
I84
sg7
I931
sg8
S'Answer20.txt'
p1079
sa(dp1080
g4
F4.417021276595745
sg5
F2.460005115799572
sg6
I47
sg7
I470
sg8
S'Answer21.txt'
p1081
sag1080
a(dp1082
g4
F4.406218655967904
sg5
F2.3526764980435235
sg6
I91
sg7
I997
sg8
S'Answer22.txt'
p1083
sag1082
a(dp1084
g4
F4.744979919678715
sg5
F2.737737336284902
sg6
I37
sg7
I498
sg8
S'Answer23.txt'
p1085
sag1084
a(dp1086
g4
F4.129793510324483
sg5
F2.18758166171769
sg6
I31
sg7
I339
sg8
S'Answer24.txt'
p1087
sa(dp1088
g4
F4.239245283018868
sg5
F2.2089285792297906
sg6
I143
sg7
I1325
sg8
S'Answer25.txt'
p1089
sag1088
a(dp1090
g4
F4.172025723472669
sg5
F2.2867552545459717
sg6
I116
sg7
I1244
sg8
S'Answer26.txt'
p1091
sag1090
a(dp1092
g4
F4.234110169491525
sg5
F2.3795700127312576
sg6
I83
sg7
I944
sg8
S'Answer27.txt'
p1093
sa(dp1094
g4
F4.352617079889807
sg5
F2.3722831430232985
sg6
I69
sg7
I726
sg8
S'Answer28.txt'
p1095
sag1094
a(dp1096
g4
F4.21990171990172
sg5
F2.431781177552936
sg6
I68
sg7
I814
sg8
S'Answer29.txt'
p1097
sa(dp1098
g4
F4.495771670190275
sg5
F2.7303948646667684
sg6
I65
sg7
I946
sg8
S'Answer30.txt'
p1099
sag1098
a(dp1100
g4
F4.445168295331162
sg5
F2.464840932800968
sg6
I57
sg7
I921
sg8
S'Answer31.txt'
p1101
sag1100
a(dp1102
g4
F4.634730538922156
sg5
F2.6198443100359734
sg6
I35
sg7
I668
sg8
S'Answer32.txt'
p1103
sag1102
a(dp1104
g4
F4.634730538922156
sg5
F2.6198443100359734
sg6
I35
sg7
I668
sg8
S'Answer33.txt'
p1105
sag1104
a(dp1106
g4
F4.276872964169381
sg5
F2.2557436387771532
sg6
I69
sg7
I921
sg8
S'Answer34.txt'
p1107
sag1106
a(dp1108
g4
F4.319223985890653
sg5
F2.3958200636898197
sg6
I167
sg7
I1701
sg8
S'Answer35.txt'
p1109
sag1108
a(dp1110
g4
F4.11611030478955
sg5
F2.1620527174423287
sg6
I57
sg7
I689
sg8
S'Answer36.txt'
p1111
sa(dp1112
g4
F4.007821229050279
sg5
F2.1921508662851923
sg6
I100
sg7
I895
sg8
S'Answer37.txt'
p1113
sag1112
a(dp1114
g4
F4.714584422373235
sg5
F2.726432836860883
sg6
I129
sg7
I1913
sg8
S'Answer38.txt'
p1115
sag1114
a(dp1116
g4
F4.409799554565701
sg5
F2.3347843583317704
sg6
I66
sg7
I898
sg8
S'Answer39.txt'
p1117
sag1116
a(dp1118
g4
F4.8907284768211925
sg5
F2.7163924994454267
sg6
I43
sg7
I604
sg8
S'Answer40.txt'
p1119
sag1118
a(dp1120
g4
F4.352504638218924
sg5
F2.6140139375936666
sg6
I25
sg7
I539
sg8
S'Answer41.txt'
p1121
sa(dp1122
g4
F4.389473684210526
sg5
F2.58047215933382
sg6
I11
sg7
I190
sg8
S'Answer42.txt'
p1123
sa(dp1124
g4
F4.677189409368635
sg5
F2.694693632055671
sg6
I42
sg7
I982
sg8
S'Answer44.txt'
p1125
sag1124
a(dp1126
g4
F4.387688984881209
sg5
F2.255738938381203
sg6
I91
sg7
I926
sg8
S'Answer45.txt'
p1127
sa(dp1128
g4
F4.424778761061947
sg5
F2.512993876910489
sg6
I44
sg7
I565
sg8
S'Answer46.txt'
p1129
sa(dp1130
g4
F3.88
sg5
F2.1403023425785137
sg6
I64
sg7
I425
sg8
S'Answer47.txt'
p1131
sa(dp1132
g4
F4.35230352303523
sg5
F2.4545740400672083
sg6
I34
sg7
I738
sg8
S'Answer48.txt'
p1133
sa(dp1134
g4
F4.277511961722488
sg5
F2.478524320009958
sg6
I48
sg7
I627
sg8
S'Answer49.txt'
p1135
sag1134
asS'Rachel-Laine'
p1136
(lp1137
(dp1138
g4
F4.4811643835616435
sg5
F2.7096329959937457
sg6
I36
sg7
I584
sg8
S'Answer1.txt'
p1139
sa(dp1140
g4
F4.635726795096322
sg5
F2.5825194303957018
sg6
I25
sg7
I571
sg8
S'Answer2.txt'
p1141
sa(dp1142
g4
F4.848167539267016
sg5
F2.88578104577979
sg6
I9
sg7
I191
sg8
S'Answer3.txt'
p1143
sa(dp1144
g4
F5.006172839506172
sg5
F2.798802463444994
sg6
I7
sg7
I162
sg8
S'Answer4.txt'
p1145
sa(dp1146
g4
F4.585915492957747
sg5
F2.8324724567435213
sg6
I11
sg7
I355
sg8
S'Answer5.txt'
p1147
sa(dp1148
g4
F4.214285714285714
sg5
F2.3149176092066344
sg6
I6
sg7
I126
sg8
S'Answer6.txt'
p1149
sa(dp1150
g4
F4.497695852534562
sg5
F2.7138905770454995
sg6
I23
sg7
I434
sg8
S'Answer7.txt'
p1151
sa(dp1152
g4
F4.382838283828383
sg5
F2.338930645531616
sg6
I14
sg7
I303
sg8
S'Answer8.txt'
p1153
sa(dp1154
g4
F4.931506849315069
sg5
F3.028760617825395
sg6
I8
sg7
I146
sg8
S'Answer9.txt'
p1155
sa(dp1156
g4
F4.382671480144404
sg5
F2.2668835643324896
sg6
I9
sg7
I277
sg8
S'Answer10.txt'
p1157
sa(dp1158
g4
F4.662337662337662
sg5
F2.706943403043893
sg6
I14
sg7
I308
sg8
S'Answer11.txt'
p1159
sa(dp1160
g4
F4.545454545454546
sg5
F2.570390679113177
sg6
I21
sg7
I429
sg8
S'Answer12.txt'
p1161
sa(dp1162
g4
F4.268929503916449
sg5
F2.1578082518957395
sg6
I14
sg7
I383
sg8
S'Answer13.txt'
p1163
sa(dp1164
g4
F4.244736842105263
sg5
F2.5392909669745323
sg6
I18
sg7
I380
sg8
S'Answer14.txt'
p1165
sa(dp1166
g4
F4.582142857142857
sg5
F2.39352602591547
sg6
I8
sg7
I280
sg8
S'Answer15.txt'
p1167
sa(dp1168
g4
F5.022471910112359
sg5
F3.0537415918648243
sg6
I3
sg7
I89
sg8
S'Answer16.txt'
p1169
sa(dp1170
g4
F4.815789473684211
sg5
F2.984068191784921
sg6
I6
sg7
I114
sg8
S'Answer17.txt'
p1171
sa(dp1172
g4
F4.358677685950413
sg5
F2.2756951320706724
sg6
I27
sg7
I605
sg8
S'Answer18.txt'
p1173
sa(dp1174
g4
F4.905882352941177
sg5
F2.8886126505612846
sg6
I9
sg7
I170
sg8
S'Answer19.txt'
p1175
sa(dp1176
g4
F4.960122699386503
sg5
F2.64487094509982
sg6
I15
sg7
I326
sg8
S'Answer20.txt'
p1177
sa(dp1178
g4
F4.466101694915254
sg5
F2.4509845942362767
sg6
I24
sg7
I472
sg8
S'Answer21.txt'
p1179
sa(dp1180
g4
F4.740875912408759
sg5
F2.612855773128628
sg6
I23
sg7
I274
sg8
S'Answer22.txt'
p1181
sa(dp1182
g4
F4.870619946091645
sg5
F2.826420286728456
sg6
I15
sg7
I371
sg8
S'Answer23.txt'
p1183
sa(dp1184
g4
F4.867088607594937
sg5
F3.0793399555373795
sg6
I18
sg7
I316
sg8
S'Answer25.txt'
p1185
sa(dp1186
g4
F4.6906906906906904
sg5
F2.7097538983481555
sg6
I13
sg7
I333
sg8
S'Answer26.txt'
p1187
sa(dp1188
g4
F4.3352272727272725
sg5
F2.1242934532733067
sg6
I16
sg7
I352
sg8
S'Answer27.txt'
p1189
sa(dp1190
g4
F4.890243902439025
sg5
F2.5898775635481552
sg6
I8
sg7
I164
sg8
S'Answer29.txt'
p1191
sa(dp1192
g4
F4.801418439716312
sg5
F2.961262568941357
sg6
I6
sg7
I141
sg8
S'Answer30.txt'
p1193
sa(dp1194
g4
F4.367149758454106
sg5
F2.5538609762054336
sg6
I11
sg7
I207
sg8
S'Answer31.txt'
p1195
sa(dp1196
g4
F4.504504504504505
sg5
F2.4746421121675444
sg6
I9
sg7
I222
sg8
S'Answer32.txt'
p1197
sa(dp1198
g4
F4.4672897196261685
sg5
F2.5035218445907192
sg6
I13
sg7
I214
sg8
S'Answer33.txt'
p1199
sa(dp1200
g4
F4.725888324873097
sg5
F2.6612446703846104
sg6
I8
sg7
I197
sg8
S'Answer34.txt'
p1201
sa(dp1202
g4
F4.371980676328502
sg5
F2.3635287300131576
sg6
I7
sg7
I207
sg8
S'Answer35.txt'
p1203
sa(dp1204
g4
F4.445714285714286
sg5
F2.501695751416038
sg6
I8
sg7
I175
sg8
S'Answer36.txt'
p1205
sa(dp1206
g4
F4.204545454545454
sg5
F2.1941334879823056
sg6
I6
sg7
I132
sg8
S'Answer37.txt'
p1207
sa(dp1208
g4
F4.654811715481172
sg5
F2.497716083546122
sg6
I33
sg7
I478
sg8
S'Answer38.txt'
p1209
sa(dp1210
g4
F4.4413075780089155
sg5
F2.5621347344008685
sg6
I33
sg7
I673
sg8
S'Answer40.txt'
p1211
sag1210
a(dp1212
g4
F4.63963963963964
sg5
F2.6839287889238586
sg6
I7
sg7
I111
sg8
S'Answer41.txt'
p1213
sa(dp1214
g4
F4.680170575692964
sg5
F2.8895907540171457
sg6
I13
sg7
I469
sg8
S'Answer42.txt'
p1215
sa(dp1216
g4
F4.540308747855918
sg5
F2.3988285964983036
sg6
I36
sg7
I583
sg8
S'Answer44.txt'
p1217
sa(dp1218
g4
F4.882478632478633
sg5
F2.583038165431035
sg6
I24
sg7
I468
sg8
S'Answer45.txt'
p1219
sa(dp1220
g4
F4.799295774647887
sg5
F2.5643546940749813
sg6
I10
sg7
I284
sg8
S'Answer46.txt'
p1221
sa(dp1222
g4
F4.507739938080495
sg5
F2.4123846161180342
sg6
I32
sg7
I646
sg8
S'Answer47.txt'
p1223
sa(dp1224
g4
F4.445134575569358
sg5
F2.537216186232113
sg6
I30
sg7
I483
sg8
S'Answer48.txt'
p1225
sa(dp1226
g4
F4.569565217391304
sg5
F2.5778209170788577
sg6
I11
sg7
I230
sg8
S'Answer49.txt'
p1227
sasS'Glenn-Anderson'
p1228
(lp1229
(dp1230
g4
F4.330645161290323
sg5
F2.481290553235023
sg6
I13
sg7
I124
sg8
S'Answer4.txt'
p1231
sa(dp1232
g4
F4.46218487394958
sg5
F2.044833275718461
sg6
I8
sg7
I119
sg8
S'Answer7.txt'
p1233
sa(dp1234
g4
F4.426751592356688
sg5
F2.4707301111701137
sg6
I22
sg7
I314
sg8
S'Answer12.txt'
p1235
sa(dp1236
g4
F4.441048034934497
sg5
F2.4587906180416224
sg6
I11
sg7
I229
sg8
S'Answer18.txt'
p1237
sa(dp1238
g4
F4.627737226277373
sg5
F2.9472424307390304
sg6
I6
sg7
I137
sg8
S'Answer26.txt'
p1239
sa(dp1240
g4
F4.598290598290598
sg5
F2.5689128668100127
sg6
I12
sg7
I117
sg8
S'Answer27.txt'
p1241
sa(dp1242
g4
F4.57
sg5
F2.371729326883657
sg6
I8
sg7
I100
sg8
S'Answer29.txt'
p1243
sa(dp1244
g4
F5.6645569620253164
sg5
F2.713330336059011
sg6
I17
sg7
I158
sg8
S'Answer31.txt'
p1245
sa(dp1246
g4
F4.566929133858268
sg5
F2.7165011980040643
sg6
I9
sg7
I127
sg8
S'Answer32.txt'
p1247
sa(dp1248
g4
F4.672727272727273
sg5
F2.5800249854642563
sg6
I8
sg7
I110
sg8
S'Answer35.txt'
p1249
sa(dp1250
g4
F4.365269461077844
sg5
F2.481932995561446
sg6
I29
sg7
I501
sg8
S'Answer36.txt'
p1251
sa(dp1252
g4
F4.036269430051814
sg5
F2.1983815455092026
sg6
I8
sg7
I193
sg8
S'Answer37.txt'
p1253
sa(dp1254
g4
F5.135869565217392
sg5
F2.854823588615801
sg6
I9
sg7
I184
sg8
S'Answer43.txt'
p1255
sa(dp1256
g4
F5.333333333333333
sg5
F2.9424682934773747
sg6
I3
sg7
I156
sg8
S'Answer44.txt'
p1257
sa(dp1258
g4
F5.0
sg5
F2.7386127875258306
sg6
I4
sg7
I96
sg8
S'Answer46.txt'
p1259
sa(dp1260
g4
F5.531506849315068
sg5
F3.2312208436385177
sg6
I19
sg7
I365
sg8
S'Answer47.txt'
p1261
sa(dp1262
g4
F4.438095238095238
sg5
F2.6074026832912613
sg6
I7
sg7
I105
sg8
S'Answer48.txt'
p1263
sa(dp1264
g4
F5.004048582995951
sg5
F2.767652911279847
sg6
I23
sg7
I494
sg8
S'Answer49.txt'
p1265
sag1264
asS'Ben-Y-Zhao'
p1266
(lp1267
(dp1268
g4
F4.808080808080808
sg5
F2.5768070747614695
sg6
I7
sg7
I99
sg8
S'Answer1.txt'
p1269
sa(dp1270
g4
F4.91542288557214
sg5
F2.7997531776915032
sg6
I6
sg7
I201
sg8
S'Answer2.txt'
p1271
sa(dp1272
g4
F4.728682170542636
sg5
F2.977309377868307
sg6
I8
sg7
I129
sg8
S'Answer4.txt'
p1273
sa(dp1274
g4
F4.469879518072289
sg5
F2.1387832899542953
sg6
I11
sg7
I166
sg8
S'Answer6.txt'
p1275
sa(dp1276
g4
F5.025477707006369
sg5
F2.7367493027894074
sg6
I7
sg7
I157
sg8
S'Answer9.txt'
p1277
sa(dp1278
g4
F4.7443609022556394
sg5
F4.0590641821931195
sg6
I7
sg7
I133
sg8
S'Answer11.txt'
p1279
sa(dp1280
g4
F5.041666666666667
sg5
F3.0853034246605664
sg6
I4
sg7
I96
sg8
S'Answer15.txt'
p1281
sa(dp1282
g4
F4.831223628691983
sg5
F2.961959199617917
sg6
I10
sg7
I237
sg8
S'Answer16.txt'
p1283
sa(dp1284
g4
F4.811224489795919
sg5
F2.773798053839156
sg6
I13
sg7
I196
sg8
S'Answer17.txt'
p1285
sa(dp1286
g4
F4.478494623655914
sg5
F2.5531068765504847
sg6
I10
sg7
I186
sg8
S'Answer18.txt'
p1287
sa(dp1288
g4
F3.9215686274509802
sg5
F1.9588225480379888
sg6
I5
sg7
I102
sg8
S'Answer20.txt'
p1289
sa(dp1290
g4
F4.655913978494624
sg5
F2.3117029223501966
sg6
I5
sg7
I93
sg8
S'Answer22.txt'
p1291
sa(dp1292
g4
F4.836879432624113
sg5
F3.145691894655579
sg6
I5
sg7
I141
sg8
S'Answer23.txt'
p1293
sa(dp1294
g4
F4.979166666666667
sg5
F2.6672362672915844
sg6
I13
sg7
I192
sg8
S'Answer26.txt'
p1295
sa(dp1296
g4
F4.785046728971962
sg5
F2.744673813700051
sg6
I4
sg7
I107
sg8
S'Answer29.txt'
p1297
sa(dp1298
g4
F4.654205607476635
sg5
F2.5763221040649764
sg6
I7
sg7
I107
sg8
S'Answer31.txt'
p1299
sa(dp1300
g4
F4.673267326732673
sg5
F2.765089692531571
sg6
I5
sg7
I101
sg8
S'Answer33.txt'
p1301
sa(dp1302
g4
F4.3133333333333335
sg5
F2.1973822810082204
sg6
I7
sg7
I150
sg8
S'Answer35.txt'
p1303
sa(dp1304
g4
F4.407843137254902
sg5
F2.5123883752204987
sg6
I13
sg7
I255
sg8
S'Answer36.txt'
p1305
sa(dp1306
g4
F4.218181818181818
sg5
F2.4335352193695208
sg6
I13
sg7
I330
sg8
S'Answer39.txt'
p1307
sa(dp1308
g4
F5.517985611510792
sg5
F3.376500504141712
sg6
I4
sg7
I139
sg8
S'Answer40.txt'
p1309
sa(dp1310
g4
F5.22289156626506
sg5
F2.83667144587747
sg6
I32
sg7
I664
sg8
S'Answer41.txt'
p1311
sa(dp1312
g4
F4.933333333333334
sg5
F2.8110891523077326
sg6
I9
sg7
I150
sg8
S'Answer42.txt'
p1313
sa(dp1314
g4
F4.236162361623617
sg5
F2.4045510423644845
sg6
I14
sg7
I271
sg8
S'Answer45.txt'
p1315
sa(dp1316
g4
F4.908424908424909
sg5
F2.7567503714811807
sg6
I18
sg7
I273
sg8
S'Answer46.txt'
p1317
sa(dp1318
g4
F4.793859649122807
sg5
F3.1618000948748715
sg6
I8
sg7
I228
sg8
S'Answer49.txt'
p1319
sa(dp1320
g4
F4.472222222222222
sg5
F2.4035403414212784
sg6
I11
sg7
I144
sg8
S'Answer50.txt'
p1321
sasS'Balaji-Viswanathan-2'
p1322
(lp1323
(dp1324
g4
F4.698795180722891
sg5
F2.639984208418617
sg6
I15
sg7
I332
sg8
S'Answer1.txt'
p1325
sa(dp1326
g4
F4.725609756097561
sg5
F2.5574525709361158
sg6
I15
sg7
I328
sg8
S'Answer2.txt'
p1327
sa(dp1328
g4
F4.948453608247423
sg5
F2.8695742491803804
sg6
I10
sg7
I194
sg8
S'Answer3.txt'
p1329
sa(dp1330
g4
F4.950381679389313
sg5
F2.4325676456172904
sg6
I20
sg7
I262
sg8
S'Answer4.txt'
p1331
sa(dp1332
g4
F4.5353075170842825
sg5
F2.3821673930638783
sg6
I26
sg7
I439
sg8
S'Answer5.txt'
p1333
sa(dp1334
g4
F4.926056338028169
sg5
F2.6639528920216518
sg6
I15
sg7
I284
sg8
S'Answer6.txt'
p1335
sa(dp1336
g4
F4.42
sg5
F2.6203925551064153
sg6
I18
sg7
I350
sg8
S'Answer7.txt'
p1337
sa(dp1338
g4
F4.905
sg5
F2.6512842799921184
sg6
I25
sg7
I600
sg8
S'Answer8.txt'
p1339
sa(dp1340
g4
F5.463320463320463
sg5
F3.138010549702562
sg6
I15
sg7
I259
sg8
S'Answer9.txt'
p1341
sa(dp1342
g4
F4.484567901234568
sg5
F2.4726421862436725
sg6
I14
sg7
I324
sg8
S'Answer10.txt'
p1343
sa(dp1344
g4
F4.139705882352941
sg5
F2.6042182809187255
sg6
I7
sg7
I136
sg8
S'Answer11.txt'
p1345
sa(dp1346
g4
F5.188811188811189
sg5
F2.92911845959912
sg6
I15
sg7
I286
sg8
S'Answer12.txt'
p1347
sa(dp1348
g4
F4.635838150289017
sg5
F2.8851401258966627
sg6
I8
sg7
I173
sg8
S'Answer13.txt'
p1349
sa(dp1350
g4
F4.743190661478599
sg5
F2.429592673469971
sg6
I16
sg7
I257
sg8
S'Answer14.txt'
p1351
sa(dp1352
g4
F4.751313485113835
sg5
F2.516734365194211
sg6
I32
sg7
I571
sg8
S'Answer15.txt'
p1353
sa(dp1354
g4
F4.57051282051282
sg5
F2.8736472391307584
sg6
I7
sg7
I156
sg8
S'Answer16.txt'
p1355
sa(dp1356
g4
F4.528497409326425
sg5
F2.573372280195839
sg6
I14
sg7
I193
sg8
S'Answer17.txt'
p1357
sa(dp1358
g4
F4.425641025641026
sg5
F2.3876517751427935
sg6
I24
sg7
I390
sg8
S'Answer18.txt'
p1359
sa(dp1360
g4
F4.851851851851852
sg5
F2.5714414995211428
sg6
I19
sg7
I432
sg8
S'Answer19.txt'
p1361
sa(dp1362
g4
F4.911504424778761
sg5
F2.557506813194824
sg6
I11
sg7
I226
sg8
S'Answer20.txt'
p1363
sa(dp1364
g4
F4.828571428571428
sg5
F2.6816078028233923
sg6
I26
sg7
I490
sg8
S'Answer21.txt'
p1365
sag1364
a(dp1366
g4
F4.932075471698113
sg5
F2.822268162171989
sg6
I14
sg7
I265
sg8
S'Answer22.txt'
p1367
sa(dp1368
g4
F4.641379310344828
sg5
F2.5001403052186557
sg6
I18
sg7
I290
sg8
S'Answer23.txt'
p1369
sa(dp1370
g4
F5.28695652173913
sg5
F2.7998919773923716
sg6
I7
sg7
I115
sg8
S'Answer24.txt'
p1371
sa(dp1372
g4
F4.638059701492537
sg5
F2.7330835129891398
sg6
I18
sg7
I268
sg8
S'Answer26.txt'
p1373
sa(dp1374
g4
F5.241645244215938
sg5
F3.0180627381863747
sg6
I22
sg7
I389
sg8
S'Answer27.txt'
p1375
sa(dp1376
g4
F5.225609756097561
sg5
F3.0788939642072197
sg6
I7
sg7
I164
sg8
S'Answer29.txt'
p1377
sa(dp1378
g4
F4.7935483870967746
sg5
F2.6486680138625704
sg6
I9
sg7
I155
sg8
S'Answer30.txt'
p1379
sa(dp1380
g4
F4.945273631840796
sg5
F2.6149189365119128
sg6
I12
sg7
I201
sg8
S'Answer31.txt'
p1381
sa(dp1382
g4
F4.904040404040404
sg5
F2.62195158990048
sg6
I11
sg7
I198
sg8
S'Answer32.txt'
p1383
sa(dp1384
g4
F4.819277108433735
sg5
F2.621250406637119
sg6
I8
sg7
I166
sg8
S'Answer33.txt'
p1385
sa(dp1386
g4
F4.86697247706422
sg5
F2.5782632318715026
sg6
I17
sg7
I218
sg8
S'Answer34.txt'
p1387
sa(dp1388
g4
F5.056650246305419
sg5
F2.957705576403291
sg6
I24
sg7
I406
sg8
S'Answer35.txt'
p1389
sa(dp1390
g4
F4.858267716535433
sg5
F2.6029190441454566
sg6
I17
sg7
I254
sg8
S'Answer36.txt'
p1391
sa(dp1392
g4
F4.7875
sg5
F2.613055306669627
sg6
I34
sg7
I560
sg8
S'Answer37.txt'
p1393
sa(dp1394
g4
F4.976744186046512
sg5
F2.8118385286682734
sg6
I22
sg7
I430
sg8
S'Answer38.txt'
p1395
sag1394
a(dp1396
g4
F5.001831501831502
sg5
F2.8654178327468687
sg6
I28
sg7
I546
sg8
S'Answer39.txt'
p1397
sa(dp1398
g4
F4.858895705521473
sg5
F2.646626051292538
sg6
I8
sg7
I163
sg8
S'Answer40.txt'
p1399
sa(dp1400
g4
F5.270422535211267
sg5
F2.8856319329481166
sg6
I39
sg7
I710
sg8
S'Answer41.txt'
p1401
sa(dp1402
g4
F4.889460154241645
sg5
F2.628813443338578
sg6
I16
sg7
I389
sg8
S'Answer42.txt'
p1403
sa(dp1404
g4
F5.071294559099437
sg5
F2.8970097822950884
sg6
I23
sg7
I533
sg8
S'Answer43.txt'
p1405
sag1404
a(dp1406
g4
F4.8478260869565215
sg5
F2.671830617569407
sg6
I29
sg7
I414
sg8
S'Answer44.txt'
p1407
sa(dp1408
g4
F5.044715447154472
sg5
F2.61445958139909
sg6
I26
sg7
I492
sg8
S'Answer45.txt'
p1409
sa(dp1410
g4
F4.947882736156352
sg5
F2.8451719913770215
sg6
I13
sg7
I307
sg8
S'Answer46.txt'
p1411
sa(dp1412
g4
F4.449056603773585
sg5
F2.438343285496957
sg6
I28
sg7
I530
sg8
S'Answer47.txt'
p1413
sa(dp1414
g4
F4.828703703703703
sg5
F2.598666001294235
sg6
I10
sg7
I216
sg8
S'Answer48.txt'
p1415
sa(dp1416
g4
F5.265033407572383
sg5
F2.9680785084447354
sg6
I21
sg7
I449
sg8
S'Answer49.txt'
p1417
sa(dp1418
g4
F4.9
sg5
F2.7546770435089294
sg6
I37
sg7
I570
sg8
S'Answer50.txt'
p1419
sasS'Gayle-Laakmann-McDowell'
p1420
(lp1421
(dp1422
g4
F4.685352622061483
sg5
F2.6710054443250906
sg6
I24
sg7
I553
sg8
S'Answer1.txt'
p1423
sa(dp1424
g4
F4.955645161290323
sg5
F2.7419325189737296
sg6
I12
sg7
I248
sg8
S'Answer2.txt'
p1425
sa(dp1426
g4
F4.52605459057072
sg5
F2.6641990154720525
sg6
I47
sg7
I806
sg8
S'Answer3.txt'
p1427
sa(dp1428
g4
F4.644376899696049
sg5
F2.5488492529927274
sg6
I18
sg7
I329
sg8
S'Answer4.txt'
p1429
sa(dp1430
g4
F4.995348837209303
sg5
F2.761020496236524
sg6
I9
sg7
I215
sg8
S'Answer5.txt'
p1431
sa(dp1432
g4
F4.879411764705883
sg5
F2.8190819752875274
sg6
I24
sg7
I680
sg8
S'Answer6.txt'
p1433
sa(dp1434
g4
F4.5078125
sg5
F2.5602004735652537
sg6
I7
sg7
I256
sg8
S'Answer7.txt'
p1435
sa(dp1436
g4
F4.911870503597123
sg5
F2.918768851610204
sg6
I30
sg7
I556
sg8
S'Answer8.txt'
p1437
sa(dp1438
g4
F4.171875
sg5
F2.4145049149618645
sg6
I4
sg7
I128
sg8
S'Answer10.txt'
p1439
sa(dp1440
g4
F4.897172236503856
sg5
F2.9178499010203933
sg6
I20
sg7
I389
sg8
S'Answer11.txt'
p1441
sa(dp1442
g4
F4.6482758620689655
sg5
F2.6510402238984807
sg6
I15
sg7
I290
sg8
S'Answer12.txt'
p1443
sa(dp1444
g4
F4.625
sg5
F2.650668154761487
sg6
I4
sg7
I96
sg8
S'Answer13.txt'
p1445
sa(dp1446
g4
F5.00709219858156
sg5
F2.7841915793214853
sg6
I5
sg7
I141
sg8
S'Answer14.txt'
p1447
sa(dp1448
g4
F4.018264840182648
sg5
F2.3033893437003794
sg6
I9
sg7
I219
sg8
S'Answer15.txt'
p1449
sa(dp1450
g4
F4.553314121037464
sg5
F2.5530473901312383
sg6
I19
sg7
I347
sg8
S'Answer16.txt'
p1451
sa(dp1452
g4
F4.846153846153846
sg5
F2.973796265395397
sg6
I6
sg7
I143
sg8
S'Answer17.txt'
p1453
sa(dp1454
g4
F5.073878627968337
sg5
F2.7946100583817906
sg6
I18
sg7
I379
sg8
S'Answer18.txt'
p1455
sa(dp1456
g4
F4.709302325581396
sg5
F2.7604611978577624
sg6
I25
sg7
I430
sg8
S'Answer20.txt'
p1457
sa(dp1458
g4
F5.274193548387097
sg5
F3.8500217350540322
sg6
I7
sg7
I186
sg8
S'Answer21.txt'
p1459
sa(dp1460
g4
F4.924603174603175
sg5
F3.0638492883262414
sg6
I12
sg7
I252
sg8
S'Answer24.txt'
p1461
sa(dp1462
g4
F5.567656765676568
sg5
F3.643504567357536
sg6
I11
sg7
I303
sg8
S'Answer25.txt'
p1463
sa(dp1464
g4
F4.392857142857143
sg5
F2.0338337178434065
sg6
I10
sg7
I196
sg8
S'Answer26.txt'
p1465
sa(dp1466
g4
F4.6
sg5
F2.792336451279261
sg6
I4
sg7
I140
sg8
S'Answer27.txt'
p1467
sa(dp1468
g4
F4.686046511627907
sg5
F2.456418398130473
sg6
I24
sg7
I430
sg8
S'Answer29.txt'
p1469
sa(dp1470
g4
F4.398058252427185
sg5
F2.8906941613513415
sg6
I5
sg7
I103
sg8
S'Answer30.txt'
p1471
sa(dp1472
g4
F5.042755344418052
sg5
F2.7532017223573804
sg6
I20
sg7
I421
sg8
S'Answer31.txt'
p1473
sag1472
a(dp1474
g4
F4.415384615384616
sg5
F2.604093273127506
sg6
I6
sg7
I130
sg8
S'Answer32.txt'
p1475
sa(dp1476
g4
F5.754716981132075
sg5
F3.45540681261339
sg6
I5
sg7
I106
sg8
S'Answer33.txt'
p1477
sa(dp1478
g4
F4.817391304347826
sg5
F2.808628347558109
sg6
I4
sg7
I115
sg8
S'Answer34.txt'
p1479
sa(dp1480
g4
F5.336405529953917
sg5
F2.7778272817031007
sg6
I11
sg7
I217
sg8
S'Answer35.txt'
p1481
sa(dp1482
g4
F4.92170818505338
sg5
F3.0279114280162935
sg6
I14
sg7
I281
sg8
S'Answer36.txt'
p1483
sa(dp1484
g4
F4.815476190476191
sg5
F2.619311404464939
sg6
I26
sg7
I504
sg8
S'Answer38.txt'
p1485
sa(dp1486
g4
F4.672694394213382
sg5
F2.9009438151609936
sg6
I36
sg7
I553
sg8
S'Answer41.txt'
p1487
sa(dp1488
g4
F4.8059701492537314
sg5
F2.5406475022033654
sg6
I26
sg7
I402
sg8
S'Answer43.txt'
p1489
sa(dp1490
g4
F5.75626423690205
sg5
F6.210234823900955
sg6
I12
sg7
I439
sg8
S'Answer44.txt'
p1491
sag1490
a(dp1492
g4
F4.691304347826087
sg5
F2.6119146805890754
sg6
I11
sg7
I230
sg8
S'Answer45.txt'
p1493
sa(dp1494
g4
F4.719178082191781
sg5
F3.5016170120217667
sg6
I19
sg7
I438
sg8
S'Answer46.txt'
p1495
sag1494
a(dp1496
g4
F5.361370716510903
sg5
F2.991202571740346
sg6
I18
sg7
I321
sg8
S'Answer47.txt'
p1497
sa(dp1498
g4
F4.506912442396313
sg5
F2.3439692509665133
sg6
I8
sg7
I217
sg8
S'Answer49.txt'
p1499
sa(dp1500
g4
F4.895204262877442
sg5
F2.694253160245264
sg6
I31
sg7
I563
sg8
S'Answer50.txt'
p1501
sasS'Ankit-Sethi'
p1502
(lp1503
(dp1504
g4
F4.28421052631579
sg5
F2.6976135960462178
sg6
I3
sg7
I95
sg8
S'Answer1.txt'
p1505
sa(dp1506
g4
F5.178260869565217
sg5
F2.927895300120686
sg6
I8
sg7
I230
sg8
S'Answer2.txt'
p1507
sa(dp1508
g4
F4.502824858757062
sg5
F2.7856052376363385
sg6
I26
sg7
I885
sg8
S'Answer3.txt'
p1509
sa(dp1510
g4
F5.050251256281407
sg5
F2.7741606430691252
sg6
I5
sg7
I199
sg8
S'Answer4.txt'
p1511
sa(dp1512
g4
F4.267857142857143
sg5
F1.963879828195156
sg6
I3
sg7
I112
sg8
S'Answer5.txt'
p1513
sa(dp1514
g4
F5.386813186813187
sg5
F3.3531749360738736
sg6
I8
sg7
I455
sg8
S'Answer6.txt'
p1515
sag1514
a(dp1516
g4
F4.921428571428572
sg5
F2.888568249256408
sg6
I6
sg7
I140
sg8
S'Answer7.txt'
p1517
sa(dp1518
g4
F4.67037037037037
sg5
F2.6525061266120904
sg6
I4
sg7
I270
sg8
S'Answer8.txt'
p1519
sa(dp1520
g4
F4.8734567901234565
sg5
F2.6993436149991323
sg6
I12
sg7
I648
sg8
S'Answer10.txt'
p1521
sag1520
a(dp1522
g4
F4.605911330049261
sg5
F2.4318017265924117
sg6
I4
sg7
I203
sg8
S'Answer11.txt'
p1523
sa(dp1524
g4
F5.22972972972973
sg5
F2.9110567288023317
sg6
I7
sg7
I444
sg8
S'Answer12.txt'
p1525
sa(dp1526
g4
F5.070967741935484
sg5
F2.9372132445773684
sg6
I5
sg7
I310
sg8
S'Answer14.txt'
p1527
sa(dp1528
g4
F4.806666666666667
sg5
F2.8359517312927287
sg6
I6
sg7
I300
sg8
S'Answer15.txt'
p1529
sa(dp1530
g4
F5.420168067226891
sg5
F2.9661842004921413
sg6
I3
sg7
I119
sg8
S'Answer16.txt'
p1531
sa(dp1532
g4
F4.6947368421052635
sg5
F2.5618264491001956
sg6
I11
sg7
I285
sg8
S'Answer17.txt'
p1533
sa(dp1534
g4
F5.026315789473684
sg5
F2.9063165519738225
sg6
I5
sg7
I114
sg8
S'Answer18.txt'
p1535
sa(dp1536
g4
F4.560975609756097
sg5
F2.7031939598872614
sg6
I7
sg7
I164
sg8
S'Answer19.txt'
p1537
sa(dp1538
g4
F5.031496062992126
sg5
F2.7663245118934654
sg6
I4
sg7
I127
sg8
S'Answer21.txt'
p1539
sa(dp1540
g4
F4.875
sg5
F3.1290882349045677
sg6
I2
sg7
I88
sg8
S'Answer22.txt'
p1541
sa(dp1542
g4
F5.207142857142857
sg5
F3.2215711086616197
sg6
I16
sg7
I280
sg8
S'Answer23.txt'
p1543
sa(dp1544
g4
F5.067961165048544
sg5
F2.8114265318736162
sg6
I12
sg7
I515
sg8
S'Answer25.txt'
p1545
sa(dp1546
g4
F4.2846153846153845
sg5
F2.2265344419751916
sg6
I5
sg7
I130
sg8
S'Answer26.txt'
p1547
sa(dp1548
g4
F5.058461538461539
sg5
F2.824012001918944
sg6
I9
sg7
I325
sg8
S'Answer27.txt'
p1549
sa(dp1550
g4
F4.902654867256637
sg5
F2.6904110347213948
sg6
I2
sg7
I113
sg8
S'Answer28.txt'
p1551
sa(dp1552
g4
F5.129411764705883
sg5
F3.0823529411764707
sg6
I2
sg7
I85
sg8
S'Answer29.txt'
p1553
sa(dp1554
g4
F5.14453125
sg5
F3.4093462669217742
sg6
I5
sg7
I256
sg8
S'Answer32.txt'
p1555
sa(dp1556
g4
F4.793103448275862
sg5
F2.771521558263465
sg6
I2
sg7
I87
sg8
S'Answer34.txt'
p1557
sa(dp1558
g4
F5.429378531073446
sg5
F3.3626120056857642
sg6
I3
sg7
I177
sg8
S'Answer35.txt'
p1559
sa(dp1560
g4
F5.032128514056225
sg5
F2.8684287373464876
sg6
I10
sg7
I498
sg8
S'Answer36.txt'
p1561
sa(dp1562
g4
F4.092436974789916
sg5
F2.446027809397748
sg6
I3
sg7
I119
sg8
S'Answer38.txt'
p1563
sa(dp1564
g4
F4.787330316742081
sg5
F2.7390295577156674
sg6
I28
sg7
I884
sg8
S'Answer39.txt'
p1565
sag1564
a(dp1566
g4
F5.0
sg5
F2.919017156000422
sg6
I5
sg7
I242
sg8
S'Answer41.txt'
p1567
sa(dp1568
g4
F5.265151515151516
sg5
F3.410900193285976
sg6
I2
sg7
I132
sg8
S'Answer42.txt'
p1569
sa(dp1570
g4
F4.552083333333333
sg5
F2.893490509123694
sg6
I1
sg7
I96
sg8
S'Answer43.txt'
p1571
sa(dp1572
g4
F4.828571428571428
sg5
F2.70698265639823
sg6
I5
sg7
I140
sg8
S'Answer44.txt'
p1573
sa(dp1574
g4
F4.613508442776736
sg5
F2.65402902297748
sg6
I16
sg7
I533
sg8
S'Answer45.txt'
p1575
sa(dp1576
g4
F5.191056910569106
sg5
F2.98507147794965
sg6
I7
sg7
I246
sg8
S'Answer46.txt'
p1577
sa(dp1578
g4
F4.968085106382978
sg5
F2.96594905215699
sg6
I2
sg7
I94
sg8
S'Answer47.txt'
p1579
sa(dp1580
g4
F4.783950617283951
sg5
F2.8124922733555753
sg6
I2
sg7
I162
sg8
S'Answer50.txt'
p1581
sasS'Gabriel-Seah'
p1582
(lp1583
(dp1584
g4
F4.666666666666667
sg5
F2.5320499498608595
sg6
I2
sg7
I201
sg8
S'Answer3.txt'
p1585
sa(dp1586
g4
F5.318910256410256
sg5
F3.1783363398768847
sg6
I6
sg7
I624
sg8
S'Answer4.txt'
p1587
sa(dp1588
g4
F5.023709902370991
sg5
F3.1795627296135653
sg6
I10
sg7
I717
sg8
S'Answer5.txt'
p1589
sag1588
a(dp1590
g4
F5.318181818181818
sg5
F2.9137037291886076
sg6
I1
sg7
I132
sg8
S'Answer7.txt'
p1591
sa(dp1592
g4
F6.304635761589404
sg5
F3.8874792688843836
sg6
I4
sg7
I151
sg8
S'Answer8.txt'
p1593
sa(dp1594
g4
F5.2
sg5
F3.2866556350122695
sg6
I2
sg7
I190
sg8
S'Answer9.txt'
p1595
sa(dp1596
g4
F4.806338028169014
sg5
F3.088112482186869
sg6
I8
sg7
I284
sg8
S'Answer10.txt'
p1597
sa(dp1598
g4
F5.412903225806452
sg5
F3.2364598277193575
sg6
I13
sg7
I155
sg8
S'Answer11.txt'
p1599
sa(dp1600
g4
F5.21865889212828
sg5
F3.3791508685023506
sg6
I13
sg7
I686
sg8
S'Answer13.txt'
p1601
sag1600
a(dp1602
g4
F5.266666666666667
sg5
F2.8
sg6
I1
sg7
I90
sg8
S'Answer14.txt'
p1603
sa(dp1604
g4
F4.711111111111111
sg5
F3.0267123507728626
sg6
I7
sg7
I450
sg8
S'Answer15.txt'
p1605
sa(dp1606
g4
F4.811881188118812
sg5
F2.900026873508567
sg6
I8
sg7
I303
sg8
S'Answer16.txt'
p1607
sa(dp1608
g4
F5.475
sg5
F3.445921502298041
sg6
I2
sg7
I80
sg8
S'Answer17.txt'
p1609
sa(dp1610
g4
F4.565693430656935
sg5
F2.5895054330445153
sg6
I3
sg7
I274
sg8
S'Answer19.txt'
p1611
sa(dp1612
g4
F5.207920792079208
sg5
F3.0700840068160438
sg6
I2
sg7
I303
sg8
S'Answer20.txt'
p1613
sa(dp1614
g4
F5.2727272727272725
sg5
F3.1368393724977643
sg6
I5
sg7
I396
sg8
S'Answer21.txt'
p1615
sa(dp1616
g4
F5.123809523809523
sg5
F3.016447731372082
sg6
I3
sg7
I210
sg8
S'Answer22.txt'
p1617
sa(dp1618
g4
F5.215447154471545
sg5
F3.266970265973057
sg6
I3
sg7
I246
sg8
S'Answer26.txt'
p1619
sa(dp1620
g4
F5.315789473684211
sg5
F3.163153516066678
sg6
I3
sg7
I133
sg8
S'Answer27.txt'
p1621
sa(dp1622
g4
F4.395833333333333
sg5
F2.7290076289539553
sg6
I2
sg7
I96
sg8
S'Answer28.txt'
p1623
sa(dp1624
g4
F5.145631067961165
sg5
F2.5252425318118803
sg6
I3
sg7
I103
sg8
S'Answer29.txt'
p1625
sa(dp1626
g4
F5.1020408163265305
sg5
F2.8229735224649395
sg6
I2
sg7
I98
sg8
S'Answer31.txt'
p1627
sa(dp1628
g4
F4.495238095238095
sg5
F2.8739347824519
sg6
I1
sg7
I210
sg8
S'Answer32.txt'
p1629
sa(dp1630
g4
F4.494791666666667
sg5
F2.8449469016598345
sg6
I1
sg7
I192
sg8
S'Answer33.txt'
p1631
sa(dp1632
g4
F5.492201039861352
sg5
F3.6058432514513385
sg6
I9
sg7
I577
sg8
S'Answer35.txt'
p1633
sa(dp1634
g4
F5.627737226277373
sg5
F4.086665692920635
sg6
I4
sg7
I137
sg8
S'Answer36.txt'
p1635
sa(dp1636
g4
F5.358139534883721
sg5
F3.325324433071334
sg6
I4
sg7
I215
sg8
S'Answer37.txt'
p1637
sa(dp1638
g4
F5.141791044776119
sg5
F3.0472718042332607
sg6
I7
sg7
I268
sg8
S'Answer39.txt'
p1639
sa(dp1640
g4
F5.068862275449102
sg5
F3.063409790397975
sg6
I13
sg7
I668
sg8
S'Answer40.txt'
p1641
sag1640
a(dp1642
g4
F5.466101694915254
sg5
F3.578850784652902
sg6
I3
sg7
I118
sg8
S'Answer42.txt'
p1643
sa(dp1644
g4
F4.854838709677419
sg5
F2.632592088231234
sg6
I1
sg7
I124
sg8
S'Answer43.txt'
p1645
sa(dp1646
g4
F4.5588235294117645
sg5
F2.699213863083483
sg6
I1
sg7
I102
sg8
S'Answer44.txt'
p1647
sa(dp1648
g4
F4.995744680851064
sg5
F3.6860840922057267
sg6
I4
sg7
I235
sg8
S'Answer46.txt'
p1649
sa(dp1650
g4
F5.359223300970874
sg5
F3.04769328315612
sg6
I4
sg7
I206
sg8
S'Answer47.txt'
p1651
sa(dp1652
g4
F5.947712418300654
sg5
F3.637658604988529
sg6
I4
sg7
I306
sg8
S'Answer48.txt'
p1653
sa(dp1654
g4
F5.571428571428571
sg5
F3.704783048938649
sg6
I2
sg7
I77
sg8
S'Answer49.txt'
p1655
sa(dp1656
g4
F5.514925373134329
sg5
F3.328943794280047
sg6
I8
sg7
I536
sg8
S'Answer50.txt'
p1657
sasS'Joshua-Engel'
p1658
(lp1659
(dp1660
g4
F4.173469387755102
sg5
F2.527503851322614
sg6
I5
sg7
I98
sg8
S'Answer1.txt'
p1661
sa(dp1662
g4
F5.043478260869565
sg5
F3.042857079464815
sg6
I6
sg7
I138
sg8
S'Answer2.txt'
p1663
sa(dp1664
g4
F5.298642533936651
sg5
F3.1739106106703314
sg6
I12
sg7
I221
sg8
S'Answer3.txt'
p1665
sa(dp1666
g4
F4.405286343612334
sg5
F2.5175276806528166
sg6
I18
sg7
I227
sg8
S'Answer6.txt'
p1667
sa(dp1668
g4
F5.611940298507463
sg5
F3.0097117622719503
sg6
I7
sg7
I134
sg8
S'Answer7.txt'
p1669
sa(dp1670
g4
F4.515625
sg5
F2.378235871265716
sg6
I8
sg7
I128
sg8
S'Answer9.txt'
p1671
sa(dp1672
g4
F5.2226277372262775
sg5
F3.2552146307236653
sg6
I15
sg7
I274
sg8
S'Answer10.txt'
p1673
sa(dp1674
g4
F5.134751773049645
sg5
F2.9239045549033906
sg6
I13
sg7
I282
sg8
S'Answer11.txt'
p1675
sa(dp1676
g4
F5.127167630057803
sg5
F2.83475775248129
sg6
I18
sg7
I346
sg8
S'Answer14.txt'
p1677
sa(dp1678
g4
F5.056910569105691
sg5
F2.554450326719412
sg6
I5
sg7
I123
sg8
S'Answer15.txt'
p1679
sa(dp1680
g4
F4.880149812734082
sg5
F2.7696622882653594
sg6
I13
sg7
I267
sg8
S'Answer16.txt'
p1681
sa(dp1682
g4
F4.636363636363637
sg5
F6.1475932107517375
sg6
I6
sg7
I187
sg8
S'Answer17.txt'
p1683
sa(dp1684
g4
F5.049019607843137
sg5
F3.1040057957432508
sg6
I6
sg7
I102
sg8
S'Answer18.txt'
p1685
sa(dp1686
g4
F4.93812375249501
sg5
F2.681749449972874
sg6
I25
sg7
I501
sg8
S'Answer19.txt'
p1687
sa(dp1688
g4
F5.648
sg5
F2.937362081868695
sg6
I13
sg7
I250
sg8
S'Answer20.txt'
p1689
sa(dp1690
g4
F4.8046875
sg5
F2.8697195903683257
sg6
I17
sg7
I384
sg8
S'Answer21.txt'
p1691
sa(dp1692
g4
F5.480916030534351
sg5
F2.8973563760863748
sg6
I4
sg7
I262
sg8
S'Answer22.txt'
p1693
sa(dp1694
g4
F4.851528384279476
sg5
F2.299565143118935
sg6
I13
sg7
I229
sg8
S'Answer23.txt'
p1695
sa(dp1696
g4
F4.5055555555555555
sg5
F2.3213913984271057
sg6
I17
sg7
I360
sg8
S'Answer24.txt'
p1697
sa(dp1698
g4
F4.77319587628866
sg5
F2.837543422218008
sg6
I6
sg7
I97
sg8
S'Answer25.txt'
p1699
sa(dp1700
g4
F4.938461538461539
sg5
F2.7477371001603537
sg6
I9
sg7
I130
sg8
S'Answer26.txt'
p1701
sa(dp1702
g4
F5.36697247706422
sg5
F4.44675028327556
sg6
I5
sg7
I109
sg8
S'Answer27.txt'
p1703
sa(dp1704
g4
F5.008219178082192
sg5
F2.73234073090623
sg6
I18
sg7
I365
sg8
S'Answer28.txt'
p1705
sa(dp1706
g4
F4.574324324324325
sg5
F2.6637994005114356
sg6
I15
sg7
I296
sg8
S'Answer29.txt'
p1707
sa(dp1708
g4
F4.841379310344828
sg5
F2.961071246202829
sg6
I5
sg7
I145
sg8
S'Answer30.txt'
p1709
sa(dp1710
g4
F4.9058295964125564
sg5
F2.609934814852428
sg6
I7
sg7
I223
sg8
S'Answer31.txt'
p1711
sa(dp1712
g4
F5.663438256658596
sg5
F3.401401903572413
sg6
I16
sg7
I413
sg8
S'Answer33.txt'
p1713
sa(dp1714
g4
F5.035460992907802
sg5
F3.0045151542816746
sg6
I5
sg7
I141
sg8
S'Answer34.txt'
p1715
sa(dp1716
g4
F5.086956521739131
sg5
F3.097567276973452
sg6
I5
sg7
I161
sg8
S'Answer35.txt'
p1717
sa(dp1718
g4
F4.966257668711656
sg5
F2.842830199109472
sg6
I10
sg7
I326
sg8
S'Answer36.txt'
p1719
sa(dp1720
g4
F4.925
sg5
F2.9844388082183904
sg6
I9
sg7
I160
sg8
S'Answer37.txt'
p1721
sa(dp1722
g4
F4.422077922077922
sg5
F2.4489130043795053
sg6
I7
sg7
I154
sg8
S'Answer38.txt'
p1723
sa(dp1724
g4
F5.257309941520468
sg5
F3.04803489812593
sg6
I8
sg7
I171
sg8
S'Answer39.txt'
p1725
sa(dp1726
g4
F5.0
sg5
F2.8699065553365384
sg6
I11
sg7
I220
sg8
S'Answer40.txt'
p1727
sa(dp1728
g4
F4.916387959866221
sg5
F2.7241700887113525
sg6
I17
sg7
I299
sg8
S'Answer41.txt'
p1729
sa(dp1730
g4
F4.438848920863309
sg5
F2.4498277957794614
sg6
I6
sg7
I139
sg8
S'Answer42.txt'
p1731
sa(dp1732
g4
F4.825396825396825
sg5
F2.6178448416620053
sg6
I22
sg7
I378
sg8
S'Answer43.txt'
p1733
sa(dp1734
g4
F4.658986175115207
sg5
F2.3640597910504315
sg6
I10
sg7
I217
sg8
S'Answer44.txt'
p1735
sa(dp1736
g4
F4.654589371980676
sg5
F2.64648444239682
sg6
I21
sg7
I414
sg8
S'Answer45.txt'
p1737
sa(dp1738
g4
F4.837301587301587
sg5
F2.54820927247875
sg6
I12
sg7
I252
sg8
S'Answer46.txt'
p1739
sa(dp1740
g4
F4.927835051546392
sg5
F2.356160701468073
sg6
I5
sg7
I97
sg8
S'Answer47.txt'
p1741
sa(dp1742
g4
F4.357682619647355
sg5
F2.539962250066606
sg6
I23
sg7
I397
sg8
S'Answer50.txt'
p1743
sasS'Antariksh-Bothale'
p1744
(lp1745
(dp1746
g4
F4.820838627700127
sg5
F2.773476262753684
sg6
I25
sg7
I787
sg8
S'Answer1.txt'
p1747
sa(dp1748
g4
F4.661538461538462
sg5
F2.603411507866157
sg6
I5
sg7
I130
sg8
S'Answer2.txt'
p1749
sa(dp1750
g4
F4.785407725321888
sg5
F3.6353476767368162
sg6
I7
sg7
I233
sg8
S'Answer3.txt'
p1751
sa(dp1752
g4
F4.817518248175182
sg5
F2.7558007251120884
sg6
I10
sg7
I274
sg8
S'Answer4.txt'
p1753
sa(dp1754
g4
F4.395348837209302
sg5
F2.4253781121383398
sg6
I6
sg7
I129
sg8
S'Answer5.txt'
p1755
sa(dp1756
g4
F4.779569892473118
sg5
F2.505866627923959
sg6
I6
sg7
I186
sg8
S'Answer6.txt'
p1757
sa(dp1758
g4
F4.80672268907563
sg5
F3.0397293967476045
sg6
I17
sg7
I238
sg8
S'Answer7.txt'
p1759
sa(dp1760
g4
F4.717171717171717
sg5
F3.002940435652279
sg6
I12
sg7
I297
sg8
S'Answer8.txt'
p1761
sa(dp1762
g4
F4.883720930232558
sg5
F2.9530828716846123
sg6
I20
sg7
I602
sg8
S'Answer9.txt'
p1763
sag1762
a(dp1764
g4
F5.023696682464455
sg5
F3.034463588993511
sg6
I13
sg7
I422
sg8
S'Answer10.txt'
p1765
sa(dp1766
g4
F5.261363636363637
sg5
F3.2245306853084634
sg6
I5
sg7
I88
sg8
S'Answer12.txt'
p1767
sa(dp1768
g4
F4.9907407407407405
sg5
F4.579534527475492
sg6
I4
sg7
I108
sg8
S'Answer13.txt'
p1769
sa(dp1770
g4
F4.85243328100471
sg5
F2.7410848006731006
sg6
I24
sg7
I637
sg8
S'Answer14.txt'
p1771
sa(dp1772
g4
F4.594059405940594
sg5
F2.5711456185619825
sg6
I7
sg7
I303
sg8
S'Answer15.txt'
p1773
sa(dp1774
g4
F4.7684630738522955
sg5
F2.864589270690343
sg6
I21
sg7
I501
sg8
S'Answer16.txt'
p1775
sa(dp1776
g4
F4.944444444444445
sg5
F2.9054015255539767
sg6
I5
sg7
I180
sg8
S'Answer18.txt'
p1777
sa(dp1778
g4
F5.010512483574244
sg5
F2.7815602453178983
sg6
I17
sg7
I761
sg8
S'Answer19.txt'
p1779
sa(dp1780
g4
F4.822410147991543
sg5
F2.9380792406928804
sg6
I21
sg7
I473
sg8
S'Answer20.txt'
p1781
sa(dp1782
g4
F4.803846153846154
sg5
F2.9671251003196257
sg6
I8
sg7
I260
sg8
S'Answer22.txt'
p1783
sa(dp1784
g4
F5.1246290801186944
sg5
F3.0596277864791475
sg6
I13
sg7
I337
sg8
S'Answer24.txt'
p1785
sa(dp1786
g4
F4.932098765432099
sg5
F2.669273131767108
sg6
I16
sg7
I324
sg8
S'Answer25.txt'
p1787
sa(dp1788
g4
F4.376623376623376
sg5
F2.8278406904754942
sg6
I16
sg7
I462
sg8
S'Answer26.txt'
p1789
sa(dp1790
g4
F4.975609756097561
sg5
F2.8901667170922423
sg6
I5
sg7
I164
sg8
S'Answer27.txt'
p1791
sa(dp1792
g4
F5.267326732673268
sg5
F3.587357032329538
sg6
I4
sg7
I101
sg8
S'Answer28.txt'
p1793
sa(dp1794
g4
F4.6566716641679164
sg5
F2.912100024615396
sg6
I23
sg7
I667
sg8
S'Answer29.txt'
p1795
sa(dp1796
g4
F4.665529010238908
sg5
F2.72719951811666
sg6
I9
sg7
I293
sg8
S'Answer30.txt'
p1797
sa(dp1798
g4
F4.781045751633987
sg5
F3.106671119116287
sg6
I16
sg7
I612
sg8
S'Answer32.txt'
p1799
sa(dp1800
g4
F5.112068965517241
sg5
F3.388888753522239
sg6
I14
sg7
I348
sg8
S'Answer33.txt'
p1801
sa(dp1802
g4
F4.725316455696203
sg5
F2.96635002904117
sg6
I17
sg7
I790
sg8
S'Answer34.txt'
p1803
sa(dp1804
g4
F4.976863753213368
sg5
F2.930993748575281
sg6
I34
sg7
I778
sg8
S'Answer35.txt'
p1805
sa(dp1806
g4
F4.904081632653061
sg5
F3.068766898780433
sg6
I17
sg7
I490
sg8
S'Answer36.txt'
p1807
sa(dp1808
g4
F4.59375
sg5
F2.656951778953058
sg6
I8
sg7
I352
sg8
S'Answer37.txt'
p1809
sa(dp1810
g4
F5.0843373493975905
sg5
F3.0195008202456957
sg6
I22
sg7
I498
sg8
S'Answer38.txt'
p1811
sa(dp1812
g4
F4.562666666666667
sg5
F2.7169970351269934
sg6
I9
sg7
I375
sg8
S'Answer39.txt'
p1813
sa(dp1814
g4
F4.854251012145749
sg5
F2.8284889384942873
sg6
I26
sg7
I741
sg8
S'Answer41.txt'
p1815
sag1814
a(dp1816
g4
F5.146586345381526
sg5
F2.8363316984423155
sg6
I19
sg7
I498
sg8
S'Answer42.txt'
p1817
sa(dp1818
g4
F5.106508875739645
sg5
F3.2133991295663176
sg6
I14
sg7
I338
sg8
S'Answer43.txt'
p1819
sa(dp1820
g4
F4.55119825708061
sg5
F2.7651530787515863
sg6
I20
sg7
I459
sg8
S'Answer44.txt'
p1821
sa(dp1822
g4
F4.6015625
sg5
F2.8867689652263047
sg6
I8
sg7
I128
sg8
S'Answer45.txt'
p1823
sa(dp1824
g4
F5.2664092664092665
sg5
F3.23865275425088
sg6
I6
sg7
I259
sg8
S'Answer46.txt'
p1825
sa(dp1826
g4
F4.731203007518797
sg5
F3.0609602251811996
sg6
I20
sg7
I532
sg8
S'Answer47.txt'
p1827
sa(dp1828
g4
F5.436781609195402
sg5
F3.7407392146266605
sg6
I1
sg7
I87
sg8
S'Answer49.txt'
p1829
sa(dp1830
g4
F4.292011019283747
sg5
F2.5942545291204646
sg6
I13
sg7
I363
sg8
S'Answer50.txt'
p1831
sasS'Dan-Knight-1'
p1832
(lp1833
(dp1834
g4
F5.1390532544378695
sg5
F3.57028519614041
sg6
I14
sg7
I338
sg8
S'Answer1.txt'
p1835
sa(dp1836
g4
F4.821596244131455
sg5
F3.294055434851275
sg6
I12
sg7
I213
sg8
S'Answer3.txt'
p1837
sa(dp1838
g4
F4.824324324324325
sg5
F2.8720058036597322
sg6
I11
sg7
I444
sg8
S'Answer4.txt'
p1839
sa(dp1840
g4
F4.31264367816092
sg5
F2.482805448685669
sg6
I24
sg7
I435
sg8
S'Answer5.txt'
p1841
sa(dp1842
g4
F4.902061855670103
sg5
F3.1859381560724325
sg6
I9
sg7
I194
sg8
S'Answer6.txt'
p1843
sa(dp1844
g4
F4.203389830508475
sg5
F2.4191103832978302
sg6
I23
sg7
I413
sg8
S'Answer7.txt'
p1845
sa(dp1846
g4
F4.525252525252525
sg5
F2.6572184933528127
sg6
I35
sg7
I594
sg8
S'Answer8.txt'
p1847
sag1846
a(dp1848
g4
F5.4361702127659575
sg5
F6.323812663996735
sg6
I5
sg7
I94
sg8
S'Answer9.txt'
p1849
sa(dp1850
g4
F4.914590747330961
sg5
F3.4651031925475695
sg6
I16
sg7
I281
sg8
S'Answer11.txt'
p1851
sa(dp1852
g4
F7.32258064516129
sg5
F13.450955348668863
sg6
I3
sg7
I62
sg8
S'Answer12.txt'
p1853
sa(dp1854
g4
F4.3842592592592595
sg5
F2.5811877124414466
sg6
I6
sg7
I216
sg8
S'Answer13.txt'
p1855
sa(dp1856
g4
F4.945544554455446
sg5
F2.6777419463389704
sg6
I3
sg7
I202
sg8
S'Answer14.txt'
p1857
sa(dp1858
g4
F5.059233449477352
sg5
F2.9596549799856087
sg6
I6
sg7
I287
sg8
S'Answer16.txt'
p1859
sa(dp1860
g4
F4.7073170731707314
sg5
F2.9321090589558456
sg6
I6
sg7
I205
sg8
S'Answer17.txt'
p1861
sa(dp1862
g4
F5.218487394957983
sg5
F4.262716346791382
sg6
I6
sg7
I119
sg8
S'Answer19.txt'
p1863
sa(dp1864
g4
F4.577464788732394
sg5
F2.62255639089192
sg6
I9
sg7
I142
sg8
S'Answer20.txt'
p1865
sa(dp1866
g4
F4.645089285714286
sg5
F2.752664778879765
sg6
I61
sg7
I896
sg8
S'Answer21.txt'
p1867
sag1866
a(dp1868
g4
F5.5141065830721
sg5
F3.7196784674035688
sg6
I10
sg7
I319
sg8
S'Answer23.txt'
p1869
sa(dp1870
g4
F5.301020408163265
sg5
F3.164890135693822
sg6
I4
sg7
I196
sg8
S'Answer24.txt'
p1871
sa(dp1872
g4
F5.081521739130435
sg5
F3.994409934870017
sg6
I7
sg7
I184
sg8
S'Answer25.txt'
p1873
sa(dp1874
g4
F4.790178571428571
sg5
F2.807148394896392
sg6
I13
sg7
I224
sg8
S'Answer26.txt'
p1875
sa(dp1876
g4
F4.732327992459943
sg5
F2.585025599761413
sg6
I48
sg7
I1061
sg8
S'Answer27.txt'
p1877
sag1876
a(dp1878
g4
F4.680327868852459
sg5
F2.949165227065138
sg6
I43
sg7
I854
sg8
S'Answer28.txt'
p1879
sa(dp1880
g4
F5.228813559322034
sg5
F3.4699949126840854
sg6
I1
sg7
I118
sg8
S'Answer29.txt'
p1881
sa(dp1882
g4
F5.294573643410852
sg5
F4.096516010327706
sg6
I5
sg7
I129
sg8
S'Answer30.txt'
p1883
sa(dp1884
g4
F5.5777777777777775
sg5
F4.266087923711784
sg6
I8
sg7
I180
sg8
S'Answer31.txt'
p1885
sa(dp1886
g4
F4.803108808290156
sg5
F3.691832558636765
sg6
I9
sg7
I193
sg8
S'Answer32.txt'
p1887
sa(dp1888
g4
F4.548672566371682
sg5
F2.513648233436768
sg6
I12
sg7
I113
sg8
S'Answer36.txt'
p1889
sa(dp1890
g4
F6.019748653500898
sg5
F7.0222501936648785
sg6
I14
sg7
I557
sg8
S'Answer38.txt'
p1891
sa(dp1892
g4
F4.938775510204081
sg5
F2.9823163389423826
sg6
I6
sg7
I98
sg8
S'Answer40.txt'
p1893
sa(dp1894
g4
F5.174291938997821
sg5
F10.322264432631446
sg6
I26
sg7
I459
sg8
S'Answer41.txt'
p1895
sa(dp1896
g4
F4.912037037037037
sg5
F2.9715695314277477
sg6
I21
sg7
I432
sg8
S'Answer42.txt'
p1897
sa(dp1898
g4
F4.951890034364261
sg5
F3.152115124976153
sg6
I11
sg7
I291
sg8
S'Answer44.txt'
p1899
sa(dp1900
g4
F4.743362831858407
sg5
F2.423260295815001
sg6
I5
sg7
I113
sg8
S'Answer47.txt'
p1901
sa(dp1902
g4
F5.052631578947368
sg5
F2.936794218407204
sg6
I15
sg7
I494
sg8
S'Answer48.txt'
p1903
sag1902
a(dp1904
g4
F4.840182648401827
sg5
F3.547721883159235
sg6
I16
sg7
I438
sg8
S'Answer50.txt'
p1905
sasS'Nimesh-Kiran-Verma'
p1906
(lp1907
(dp1908
g4
F4.346846846846847
sg5
F2.477186715124468
sg6
I10
sg7
I444
sg8
S'Answer1.txt'
p1909
sa(dp1910
g4
F4.495495495495495
sg5
F3.075253959699325
sg6
I1
sg7
I222
sg8
S'Answer2.txt'
p1911
sa(dp1912
g4
F4.874371859296482
sg5
F3.204785442282745
sg6
I1
sg7
I199
sg8
S'Answer3.txt'
p1913
sa(dp1914
g4
F4.756916996047431
sg5
F2.763075558597241
sg6
I7
sg7
I506
sg8
S'Answer4.txt'
p1915
sa(dp1916
g4
F3.1313131313131315
sg5
F2.6842092101337705
sg6
I2
sg7
I99
sg8
S'Answer5.txt'
p1917
sa(dp1918
g4
F4.09
sg5
F2.2587385860253963
sg6
I5
sg7
I100
sg8
S'Answer10.txt'
p1919
sa(dp1920
g4
F4.292929292929293
sg5
F3.1180560029327165
sg6
I6
sg7
I99
sg8
S'Answer13.txt'
p1921
sa(dp1922
g4
F4.359795134443022
sg5
F2.726523013458943
sg6
I11
sg7
I781
sg8
S'Answer14.txt'
p1923
sa(dp1924
g4
F4.527777777777778
sg5
F3.013728874400459
sg6
I4
sg7
I72
sg8
S'Answer15.txt'
p1925
sa(dp1926
g4
F4.626436781609195
sg5
F2.921106693527122
sg6
I1
sg7
I174
sg8
S'Answer16.txt'
p1927
sa(dp1928
g4
F4.517241379310345
sg5
F2.7889851858737793
sg6
I1
sg7
I348
sg8
S'Answer17.txt'
p1929
sa(dp1930
g4
F4.640483383685801
sg5
F2.5711727035491347
sg6
I14
sg7
I331
sg8
S'Answer20.txt'
p1931
sa(dp1932
g4
F4.8785425101214575
sg5
F3.6398359815916503
sg6
I9
sg7
I247
sg8
S'Answer26.txt'
p1933
sa(dp1934
g4
F4.980830670926518
sg5
F2.847500436331122
sg6
I16
sg7
I313
sg8
S'Answer27.txt'
p1935
sa(dp1936
g4
F4.347107438016529
sg5
F2.720326742047431
sg6
I3
sg7
I121
sg8
S'Answer29.txt'
p1937
sa(dp1938
g4
F5.751295336787565
sg5
F3.713902027556616
sg6
I3
sg7
I193
sg8
S'Answer31.txt'
p1939
sa(dp1940
g4
F5.41743119266055
sg5
F3.1803682216186964
sg6
I9
sg7
I218
sg8
S'Answer35.txt'
p1941
sa(dp1942
g4
F11.685185185185185
sg5
F15.347606972441056
sg6
I12
sg7
I54
sg8
S'Answer36.txt'
p1943
sa(dp1944
g4
F4.811881188118812
sg5
F3.021527397570075
sg6
I1
sg7
I303
sg8
S'Answer37.txt'
p1945
sa(dp1946
g4
F5.118681318681318
sg5
F3.2464997918438527
sg6
I8
sg7
I455
sg8
S'Answer40.txt'
p1947
sa(dp1948
g4
F5.853211009174312
sg5
F3.396775827118314
sg6
I5
sg7
I109
sg8
S'Answer41.txt'
p1949
sa(dp1950
g4
F4.651162790697675
sg5
F3.2627832385666196
sg6
I2
sg7
I129
sg8
S'Answer44.txt'
p1951
sa(dp1952
g4
F4.79375
sg5
F2.8138723503681984
sg6
I15
sg7
I480
sg8
S'Answer46.txt'
p1953
sag1952
a(dp1954
g4
F4.571106094808126
sg5
F2.45064609254599
sg6
I7
sg7
I443
sg8
S'Answer47.txt'
p1955
sa(dp1956
g4
F5.111827956989248
sg5
F4.078315313748827
sg6
I13
sg7
I465
sg8
S'Answer48.txt'
p1957
sag1956
as.