(dp0
S'Virali-Modi'
p1
(lp2
(dp3
S'avg_word_length'
p4
F4.6120906801007555
sS'standard_dev'
p5
F2.603167013580427
sS'no_of_sentences'
p6
I21
sS'no_of_words'
p7
I397
sS'key'
p8
S'Answer2.txt'
p9
sa(dp10
g4
F4.863636363636363
sg5
F2.9239676429227974
sg6
I5
sg7
I88
sg8
S'Answer4.txt'
p11
sa(dp12
g4
F4.5
sg5
F2.586266712890239
sg6
I11
sg7
I196
sg8
S'Answer5.txt'
p13
sa(dp14
g4
F4.364779874213837
sg5
F2.807047249285403
sg6
I6
sg7
I159
sg8
S'Answer7.txt'
p15
sa(dp16
g4
F4.756302521008403
sg5
F2.786420813606201
sg6
I7
sg7
I119
sg8
S'Answer8.txt'
p17
sa(dp18
g4
F4.556179775280899
sg5
F2.5659155256038315
sg6
I10
sg7
I178
sg8
S'Answer9.txt'
p19
sa(dp20
g4
F4.193939393939394
sg5
F2.3507496410963866
sg6
I29
sg7
I495
sg8
S'Answer11.txt'
p21
sa(dp22
g4
F4.656
sg5
F2.520647535852644
sg6
I9
sg7
I125
sg8
S'Answer13.txt'
p23
sa(dp24
g4
F4.846938775510204
sg5
F2.752928091666075
sg6
I6
sg7
I98
sg8
S'Answer14.txt'
p25
sa(dp26
g4
F4.47093023255814
sg5
F2.548203483855344
sg6
I8
sg7
I172
sg8
S'Answer15.txt'
p27
sa(dp28
g4
F4.5394736842105265
sg5
F2.344875653047482
sg6
I22
sg7
I456
sg8
S'Answer16.txt'
p29
sa(dp30
g4
F4.192660550458716
sg5
F2.3139401939474262
sg6
I20
sg7
I327
sg8
S'Answer17.txt'
p31
sa(dp32
g4
F4.545454545454546
sg5
F2.597218038555853
sg6
I11
sg7
I209
sg8
S'Answer18.txt'
p33
sa(dp34
g4
F4.945945945945946
sg5
F2.588393490554135
sg6
I12
sg7
I222
sg8
S'Answer19.txt'
p35
sa(dp36
g4
F4.756302521008403
sg5
F2.907441586816482
sg6
I8
sg7
I119
sg8
S'Answer20.txt'
p37
sa(dp38
g4
F4.15680473372781
sg5
F2.2615184124650463
sg6
I17
sg7
I338
sg8
S'Answer21.txt'
p39
sa(dp40
g4
F4.322916666666667
sg5
F2.2430206180629644
sg6
I8
sg7
I192
sg8
S'Answer24.txt'
p41
sa(dp42
g4
F3.8205128205128207
sg5
F2.1507914846677703
sg6
I6
sg7
I117
sg8
S'Answer25.txt'
p43
sa(dp44
g4
F4.37386018237082
sg5
F2.3681108354085323
sg6
I13
sg7
I329
sg8
S'Answer28.txt'
p45
sa(dp46
g4
F4.261780104712042
sg5
F2.6712655537127605
sg6
I7
sg7
I191
sg8
S'Answer29.txt'
p47
sa(dp48
g4
F4.45320197044335
sg5
F2.7483137855131177
sg6
I19
sg7
I406
sg8
S'Answer30.txt'
p49
sa(dp50
g4
F4.071005917159764
sg5
F2.4677181192229636
sg6
I12
sg7
I169
sg8
S'Answer32.txt'
p51
sa(dp52
g4
F4.478390461997019
sg5
F2.5483218702208386
sg6
I43
sg7
I671
sg8
S'Answer33.txt'
p53
sa(dp54
g4
F4.455252918287938
sg5
F2.603301860725275
sg6
I12
sg7
I257
sg8
S'Answer34.txt'
p55
sa(dp56
g4
F4.532976827094474
sg5
F2.416387873290774
sg6
I27
sg7
I561
sg8
S'Answer35.txt'
p57
sa(dp58
g4
F4.386281588447654
sg5
F2.574288216114296
sg6
I13
sg7
I277
sg8
S'Answer36.txt'
p59
sa(dp60
g4
F4.374358974358974
sg5
F2.3023642195236014
sg6
I18
sg7
I390
sg8
S'Answer37.txt'
p61
sa(dp62
g4
F4.772151898734177
sg5
F2.550499415421616
sg6
I11
sg7
I237
sg8
S'Answer38.txt'
p63
sa(dp64
g4
F4.76
sg5
F2.863983240174425
sg6
I5
sg7
I100
sg8
S'Answer39.txt'
p65
sa(dp66
g4
F4.45945945945946
sg5
F2.9371303755453315
sg6
I7
sg7
I111
sg8
S'Answer40.txt'
p67
sa(dp68
g4
F4.302884615384615
sg5
F2.4513715443043007
sg6
I9
sg7
I208
sg8
S'Answer42.txt'
p69
sa(dp70
g4
F4.511627906976744
sg5
F2.2183239477800143
sg6
I17
sg7
I301
sg8
S'Answer46.txt'
p71
sa(dp72
g4
F4.602941176470588
sg5
F2.6534644716713536
sg6
I13
sg7
I272
sg8
S'Answer48.txt'
p73
sasS'Robert-Frost-1'
p74
(lp75
(dp76
g4
F5.056338028169014
sg5
F2.4774323597233816
sg6
I1
sg7
I142
sg8
S'Answer3.txt'
p77
sa(dp78
g4
F4.659722222222222
sg5
F2.5904825656312576
sg6
I9
sg7
I144
sg8
S'Answer7.txt'
p79
sa(dp80
g4
F4.482142857142857
sg5
F2.580774187751277
sg6
I9
sg7
I112
sg8
S'Answer8.txt'
p81
sa(dp82
g4
F4.463855421686747
sg5
F2.48766006632802
sg6
I8
sg7
I166
sg8
S'Answer10.txt'
p83
sa(dp84
g4
F4.82258064516129
sg5
F2.2967311521882228
sg6
I10
sg7
I124
sg8
S'Answer16.txt'
p85
sa(dp86
g4
F5.117647058823529
sg5
F4.6868487629123425
sg6
I6
sg7
I102
sg8
S'Answer18.txt'
p87
sa(dp88
g4
F4.734246575342466
sg5
F3.2271204849109902
sg6
I18
sg7
I365
sg8
S'Answer19.txt'
p89
sa(dp90
g4
F4.848484848484849
sg5
F2.524080536116218
sg6
I10
sg7
I99
sg8
S'Answer20.txt'
p91
sa(dp92
g4
F5.311320754716981
sg5
F3.004283757755984
sg6
I6
sg7
I106
sg8
S'Answer24.txt'
p93
sa(dp94
g4
F4.275167785234899
sg5
F2.302199299831231
sg6
I4
sg7
I149
sg8
S'Answer25.txt'
p95
sa(dp96
g4
F5.518151815181518
sg5
F3.218987687570071
sg6
I1
sg7
I303
sg8
S'Answer26.txt'
p97
sa(dp98
g4
F4.544554455445544
sg5
F2.4757227266622235
sg6
I5
sg7
I101
sg8
S'Answer27.txt'
p99
sa(dp100
g4
F4.828571428571428
sg5
F2.9343844746212073
sg6
I11
sg7
I175
sg8
S'Answer28.txt'
p101
sa(dp102
g4
F4.444099378881988
sg5
F2.516710480428322
sg6
I16
sg7
I322
sg8
S'Answer30.txt'
p103
sa(dp104
g4
F4.266666666666667
sg5
F2.1974732965132673
sg6
I6
sg7
I120
sg8
S'Answer32.txt'
p105
sa(dp106
g4
F5.108108108108108
sg5
F2.6418371690837197
sg6
I5
sg7
I111
sg8
S'Answer33.txt'
p107
sa(dp108
g4
F5.473053892215569
sg5
F3.207055043336152
sg6
I3
sg7
I167
sg8
S'Answer34.txt'
p109
sa(dp110
g4
F4.596153846153846
sg5
F2.65105351787019
sg6
I48
sg7
I884
sg8
S'Answer35.txt'
p111
sa(dp112
g4
F4.641456582633054
sg5
F2.6420996035997217
sg6
I24
sg7
I357
sg8
S'Answer39.txt'
p113
sa(dp114
g4
F4.627659574468085
sg5
F2.5410838806237335
sg6
I7
sg7
I188
sg8
S'Answer41.txt'
p115
sa(dp116
g4
F4.150375939849624
sg5
F2.299055839558072
sg6
I6
sg7
I133
sg8
S'Answer43.txt'
p117
sa(dp118
g4
F4.378531073446328
sg5
F2.6719281618602295
sg6
I8
sg7
I177
sg8
S'Answer45.txt'
p119
sa(dp120
g4
F4.673076923076923
sg5
F3.06011031630054
sg6
I9
sg7
I208
sg8
S'Answer46.txt'
p121
sa(dp122
g4
F4.155038759689923
sg5
F2.1220496615158524
sg6
I4
sg7
I129
sg8
S'Answer47.txt'
p123
sa(dp124
g4
F4.924812030075188
sg5
F2.792643558955218
sg6
I10
sg7
I266
sg8
S'Answer48.txt'
p125
sa(dp126
g4
F4.683229813664596
sg5
F2.557226662195606
sg6
I15
sg7
I483
sg8
S'Answer49.txt'
p127
sasS'Antariksh-Bothale'
p128
(lp129
(dp130
g4
F4.820838627700127
sg5
F2.773476262753684
sg6
I25
sg7
I787
sg8
S'Answer1.txt'
p131
sa(dp132
g4
F4.661538461538462
sg5
F2.603411507866157
sg6
I5
sg7
I130
sg8
S'Answer2.txt'
p133
sa(dp134
g4
F4.785407725321888
sg5
F3.6353476767368162
sg6
I7
sg7
I233
sg8
S'Answer3.txt'
p135
sa(dp136
g4
F4.817518248175182
sg5
F2.7558007251120884
sg6
I10
sg7
I274
sg8
S'Answer4.txt'
p137
sa(dp138
g4
F4.395348837209302
sg5
F2.4253781121383398
sg6
I6
sg7
I129
sg8
S'Answer5.txt'
p139
sa(dp140
g4
F4.779569892473118
sg5
F2.505866627923959
sg6
I6
sg7
I186
sg8
S'Answer6.txt'
p141
sa(dp142
g4
F4.80672268907563
sg5
F3.0397293967476045
sg6
I17
sg7
I238
sg8
S'Answer7.txt'
p143
sa(dp144
g4
F4.717171717171717
sg5
F3.002940435652279
sg6
I12
sg7
I297
sg8
S'Answer8.txt'
p145
sa(dp146
g4
F4.883720930232558
sg5
F2.9530828716846123
sg6
I20
sg7
I602
sg8
S'Answer9.txt'
p147
sag146
a(dp148
g4
F5.023696682464455
sg5
F3.034463588993511
sg6
I13
sg7
I422
sg8
S'Answer10.txt'
p149
sa(dp150
g4
F5.261363636363637
sg5
F3.2245306853084634
sg6
I5
sg7
I88
sg8
S'Answer12.txt'
p151
sa(dp152
g4
F4.9907407407407405
sg5
F4.579534527475492
sg6
I4
sg7
I108
sg8
S'Answer13.txt'
p153
sa(dp154
g4
F4.85243328100471
sg5
F2.7410848006731006
sg6
I24
sg7
I637
sg8
S'Answer14.txt'
p155
sa(dp156
g4
F4.594059405940594
sg5
F2.5711456185619825
sg6
I7
sg7
I303
sg8
S'Answer15.txt'
p157
sa(dp158
g4
F4.7684630738522955
sg5
F2.864589270690343
sg6
I21
sg7
I501
sg8
S'Answer16.txt'
p159
sa(dp160
g4
F4.944444444444445
sg5
F2.9054015255539767
sg6
I5
sg7
I180
sg8
S'Answer18.txt'
p161
sa(dp162
g4
F5.010512483574244
sg5
F2.7815602453178983
sg6
I17
sg7
I761
sg8
S'Answer19.txt'
p163
sa(dp164
g4
F4.822410147991543
sg5
F2.9380792406928804
sg6
I21
sg7
I473
sg8
S'Answer20.txt'
p165
sa(dp166
g4
F4.803846153846154
sg5
F2.9671251003196257
sg6
I8
sg7
I260
sg8
S'Answer22.txt'
p167
sa(dp168
g4
F5.1246290801186944
sg5
F3.0596277864791475
sg6
I13
sg7
I337
sg8
S'Answer24.txt'
p169
sa(dp170
g4
F4.932098765432099
sg5
F2.669273131767108
sg6
I16
sg7
I324
sg8
S'Answer25.txt'
p171
sa(dp172
g4
F4.376623376623376
sg5
F2.8278406904754942
sg6
I16
sg7
I462
sg8
S'Answer26.txt'
p173
sa(dp174
g4
F4.975609756097561
sg5
F2.8901667170922423
sg6
I5
sg7
I164
sg8
S'Answer27.txt'
p175
sa(dp176
g4
F5.267326732673268
sg5
F3.587357032329538
sg6
I4
sg7
I101
sg8
S'Answer28.txt'
p177
sa(dp178
g4
F4.6566716641679164
sg5
F2.912100024615396
sg6
I23
sg7
I667
sg8
S'Answer29.txt'
p179
sa(dp180
g4
F4.665529010238908
sg5
F2.72719951811666
sg6
I9
sg7
I293
sg8
S'Answer30.txt'
p181
sa(dp182
g4
F4.781045751633987
sg5
F3.106671119116287
sg6
I16
sg7
I612
sg8
S'Answer32.txt'
p183
sa(dp184
g4
F5.112068965517241
sg5
F3.388888753522239
sg6
I14
sg7
I348
sg8
S'Answer33.txt'
p185
sa(dp186
g4
F4.725316455696203
sg5
F2.96635002904117
sg6
I17
sg7
I790
sg8
S'Answer34.txt'
p187
sa(dp188
g4
F4.976863753213368
sg5
F2.930993748575281
sg6
I34
sg7
I778
sg8
S'Answer35.txt'
p189
sa(dp190
g4
F4.904081632653061
sg5
F3.068766898780433
sg6
I17
sg7
I490
sg8
S'Answer36.txt'
p191
sa(dp192
g4
F4.59375
sg5
F2.656951778953058
sg6
I8
sg7
I352
sg8
S'Answer37.txt'
p193
sa(dp194
g4
F5.0843373493975905
sg5
F3.0195008202456957
sg6
I22
sg7
I498
sg8
S'Answer38.txt'
p195
sa(dp196
g4
F4.562666666666667
sg5
F2.7169970351269934
sg6
I9
sg7
I375
sg8
S'Answer39.txt'
p197
sa(dp198
g4
F4.854251012145749
sg5
F2.8284889384942873
sg6
I26
sg7
I741
sg8
S'Answer41.txt'
p199
sag198
a(dp200
g4
F5.146586345381526
sg5
F2.8363316984423155
sg6
I19
sg7
I498
sg8
S'Answer42.txt'
p201
sa(dp202
g4
F5.106508875739645
sg5
F3.2133991295663176
sg6
I14
sg7
I338
sg8
S'Answer43.txt'
p203
sa(dp204
g4
F4.55119825708061
sg5
F2.7651530787515863
sg6
I20
sg7
I459
sg8
S'Answer44.txt'
p205
sa(dp206
g4
F4.6015625
sg5
F2.8867689652263047
sg6
I8
sg7
I128
sg8
S'Answer45.txt'
p207
sa(dp208
g4
F5.2664092664092665
sg5
F3.23865275425088
sg6
I6
sg7
I259
sg8
S'Answer46.txt'
p209
sa(dp210
g4
F4.731203007518797
sg5
F3.0609602251811996
sg6
I20
sg7
I532
sg8
S'Answer47.txt'
p211
sa(dp212
g4
F5.436781609195402
sg5
F3.7407392146266605
sg6
I1
sg7
I87
sg8
S'Answer49.txt'
p213
sa(dp214
g4
F4.292011019283747
sg5
F2.5942545291204646
sg6
I13
sg7
I363
sg8
S'Answer50.txt'
p215
sasS'Balaji-Viswanathan-2'
p216
(lp217
(dp218
g4
F4.698795180722891
sg5
F2.639984208418617
sg6
I15
sg7
I332
sg8
S'Answer1.txt'
p219
sa(dp220
g4
F4.725609756097561
sg5
F2.5574525709361158
sg6
I15
sg7
I328
sg8
S'Answer2.txt'
p221
sa(dp222
g4
F4.948453608247423
sg5
F2.8695742491803804
sg6
I10
sg7
I194
sg8
S'Answer3.txt'
p223
sa(dp224
g4
F4.950381679389313
sg5
F2.4325676456172904
sg6
I20
sg7
I262
sg8
S'Answer4.txt'
p225
sa(dp226
g4
F4.5353075170842825
sg5
F2.3821673930638783
sg6
I26
sg7
I439
sg8
S'Answer5.txt'
p227
sa(dp228
g4
F4.926056338028169
sg5
F2.6639528920216518
sg6
I15
sg7
I284
sg8
S'Answer6.txt'
p229
sa(dp230
g4
F4.42
sg5
F2.6203925551064153
sg6
I18
sg7
I350
sg8
S'Answer7.txt'
p231
sa(dp232
g4
F4.905
sg5
F2.6512842799921184
sg6
I25
sg7
I600
sg8
S'Answer8.txt'
p233
sa(dp234
g4
F5.463320463320463
sg5
F3.138010549702562
sg6
I15
sg7
I259
sg8
S'Answer9.txt'
p235
sa(dp236
g4
F4.484567901234568
sg5
F2.4726421862436725
sg6
I14
sg7
I324
sg8
S'Answer10.txt'
p237
sa(dp238
g4
F4.139705882352941
sg5
F2.6042182809187255
sg6
I7
sg7
I136
sg8
S'Answer11.txt'
p239
sa(dp240
g4
F5.188811188811189
sg5
F2.92911845959912
sg6
I15
sg7
I286
sg8
S'Answer12.txt'
p241
sa(dp242
g4
F4.635838150289017
sg5
F2.8851401258966627
sg6
I8
sg7
I173
sg8
S'Answer13.txt'
p243
sa(dp244
g4
F4.743190661478599
sg5
F2.429592673469971
sg6
I16
sg7
I257
sg8
S'Answer14.txt'
p245
sa(dp246
g4
F4.751313485113835
sg5
F2.516734365194211
sg6
I32
sg7
I571
sg8
S'Answer15.txt'
p247
sa(dp248
g4
F4.57051282051282
sg5
F2.8736472391307584
sg6
I7
sg7
I156
sg8
S'Answer16.txt'
p249
sa(dp250
g4
F4.528497409326425
sg5
F2.573372280195839
sg6
I14
sg7
I193
sg8
S'Answer17.txt'
p251
sa(dp252
g4
F4.425641025641026
sg5
F2.3876517751427935
sg6
I24
sg7
I390
sg8
S'Answer18.txt'
p253
sa(dp254
g4
F4.851851851851852
sg5
F2.5714414995211428
sg6
I19
sg7
I432
sg8
S'Answer19.txt'
p255
sa(dp256
g4
F4.911504424778761
sg5
F2.557506813194824
sg6
I11
sg7
I226
sg8
S'Answer20.txt'
p257
sa(dp258
g4
F4.828571428571428
sg5
F2.6816078028233923
sg6
I26
sg7
I490
sg8
S'Answer21.txt'
p259
sag258
a(dp260
g4
F4.932075471698113
sg5
F2.822268162171989
sg6
I14
sg7
I265
sg8
S'Answer22.txt'
p261
sa(dp262
g4
F4.641379310344828
sg5
F2.5001403052186557
sg6
I18
sg7
I290
sg8
S'Answer23.txt'
p263
sa(dp264
g4
F5.28695652173913
sg5
F2.7998919773923716
sg6
I7
sg7
I115
sg8
S'Answer24.txt'
p265
sa(dp266
g4
F4.638059701492537
sg5
F2.7330835129891398
sg6
I18
sg7
I268
sg8
S'Answer26.txt'
p267
sa(dp268
g4
F5.241645244215938
sg5
F3.0180627381863747
sg6
I22
sg7
I389
sg8
S'Answer27.txt'
p269
sa(dp270
g4
F5.225609756097561
sg5
F3.0788939642072197
sg6
I7
sg7
I164
sg8
S'Answer29.txt'
p271
sa(dp272
g4
F4.7935483870967746
sg5
F2.6486680138625704
sg6
I9
sg7
I155
sg8
S'Answer30.txt'
p273
sa(dp274
g4
F4.945273631840796
sg5
F2.6149189365119128
sg6
I12
sg7
I201
sg8
S'Answer31.txt'
p275
sa(dp276
g4
F4.904040404040404
sg5
F2.62195158990048
sg6
I11
sg7
I198
sg8
S'Answer32.txt'
p277
sa(dp278
g4
F4.819277108433735
sg5
F2.621250406637119
sg6
I8
sg7
I166
sg8
S'Answer33.txt'
p279
sa(dp280
g4
F4.86697247706422
sg5
F2.5782632318715026
sg6
I17
sg7
I218
sg8
S'Answer34.txt'
p281
sa(dp282
g4
F5.056650246305419
sg5
F2.957705576403291
sg6
I24
sg7
I406
sg8
S'Answer35.txt'
p283
sa(dp284
g4
F4.858267716535433
sg5
F2.6029190441454566
sg6
I17
sg7
I254
sg8
S'Answer36.txt'
p285
sa(dp286
g4
F4.7875
sg5
F2.613055306669627
sg6
I34
sg7
I560
sg8
S'Answer37.txt'
p287
sa(dp288
g4
F4.976744186046512
sg5
F2.8118385286682734
sg6
I22
sg7
I430
sg8
S'Answer38.txt'
p289
sag288
a(dp290
g4
F5.001831501831502
sg5
F2.8654178327468687
sg6
I28
sg7
I546
sg8
S'Answer39.txt'
p291
sa(dp292
g4
F4.858895705521473
sg5
F2.646626051292538
sg6
I8
sg7
I163
sg8
S'Answer40.txt'
p293
sa(dp294
g4
F5.270422535211267
sg5
F2.8856319329481166
sg6
I39
sg7
I710
sg8
S'Answer41.txt'
p295
sa(dp296
g4
F4.889460154241645
sg5
F2.628813443338578
sg6
I16
sg7
I389
sg8
S'Answer42.txt'
p297
sa(dp298
g4
F5.071294559099437
sg5
F2.8970097822950884
sg6
I23
sg7
I533
sg8
S'Answer43.txt'
p299
sag298
a(dp300
g4
F4.8478260869565215
sg5
F2.671830617569407
sg6
I29
sg7
I414
sg8
S'Answer44.txt'
p301
sa(dp302
g4
F5.044715447154472
sg5
F2.61445958139909
sg6
I26
sg7
I492
sg8
S'Answer45.txt'
p303
sa(dp304
g4
F4.947882736156352
sg5
F2.8451719913770215
sg6
I13
sg7
I307
sg8
S'Answer46.txt'
p305
sa(dp306
g4
F4.449056603773585
sg5
F2.438343285496957
sg6
I28
sg7
I530
sg8
S'Answer47.txt'
p307
sa(dp308
g4
F4.828703703703703
sg5
F2.598666001294235
sg6
I10
sg7
I216
sg8
S'Answer48.txt'
p309
sa(dp310
g4
F5.265033407572383
sg5
F2.9680785084447354
sg6
I21
sg7
I449
sg8
S'Answer49.txt'
p311
sa(dp312
g4
F4.9
sg5
F2.7546770435089294
sg6
I37
sg7
I570
sg8
S'Answer50.txt'
p313
sasS'Gayle-Laakmann-McDowell'
p314
(lp315
(dp316
g4
F4.685352622061483
sg5
F2.6710054443250906
sg6
I24
sg7
I553
sg8
S'Answer1.txt'
p317
sa(dp318
g4
F4.955645161290323
sg5
F2.7419325189737296
sg6
I12
sg7
I248
sg8
S'Answer2.txt'
p319
sa(dp320
g4
F4.52605459057072
sg5
F2.6641990154720525
sg6
I47
sg7
I806
sg8
S'Answer3.txt'
p321
sa(dp322
g4
F4.644376899696049
sg5
F2.5488492529927274
sg6
I18
sg7
I329
sg8
S'Answer4.txt'
p323
sa(dp324
g4
F4.995348837209303
sg5
F2.761020496236524
sg6
I9
sg7
I215
sg8
S'Answer5.txt'
p325
sa(dp326
g4
F4.879411764705883
sg5
F2.8190819752875274
sg6
I24
sg7
I680
sg8
S'Answer6.txt'
p327
sa(dp328
g4
F4.5078125
sg5
F2.5602004735652537
sg6
I7
sg7
I256
sg8
S'Answer7.txt'
p329
sa(dp330
g4
F4.911870503597123
sg5
F2.918768851610204
sg6
I30
sg7
I556
sg8
S'Answer8.txt'
p331
sa(dp332
g4
F4.171875
sg5
F2.4145049149618645
sg6
I4
sg7
I128
sg8
S'Answer10.txt'
p333
sa(dp334
g4
F4.897172236503856
sg5
F2.9178499010203933
sg6
I20
sg7
I389
sg8
S'Answer11.txt'
p335
sa(dp336
g4
F4.6482758620689655
sg5
F2.6510402238984807
sg6
I15
sg7
I290
sg8
S'Answer12.txt'
p337
sa(dp338
g4
F4.625
sg5
F2.650668154761487
sg6
I4
sg7
I96
sg8
S'Answer13.txt'
p339
sa(dp340
g4
F5.00709219858156
sg5
F2.7841915793214853
sg6
I5
sg7
I141
sg8
S'Answer14.txt'
p341
sa(dp342
g4
F4.018264840182648
sg5
F2.3033893437003794
sg6
I9
sg7
I219
sg8
S'Answer15.txt'
p343
sa(dp344
g4
F4.553314121037464
sg5
F2.5530473901312383
sg6
I19
sg7
I347
sg8
S'Answer16.txt'
p345
sa(dp346
g4
F4.846153846153846
sg5
F2.973796265395397
sg6
I6
sg7
I143
sg8
S'Answer17.txt'
p347
sa(dp348
g4
F5.073878627968337
sg5
F2.7946100583817906
sg6
I18
sg7
I379
sg8
S'Answer18.txt'
p349
sa(dp350
g4
F4.709302325581396
sg5
F2.7604611978577624
sg6
I25
sg7
I430
sg8
S'Answer20.txt'
p351
sa(dp352
g4
F5.274193548387097
sg5
F3.8500217350540322
sg6
I7
sg7
I186
sg8
S'Answer21.txt'
p353
sa(dp354
g4
F4.924603174603175
sg5
F3.0638492883262414
sg6
I12
sg7
I252
sg8
S'Answer24.txt'
p355
sa(dp356
g4
F5.567656765676568
sg5
F3.643504567357536
sg6
I11
sg7
I303
sg8
S'Answer25.txt'
p357
sa(dp358
g4
F4.392857142857143
sg5
F2.0338337178434065
sg6
I10
sg7
I196
sg8
S'Answer26.txt'
p359
sa(dp360
g4
F4.6
sg5
F2.792336451279261
sg6
I4
sg7
I140
sg8
S'Answer27.txt'
p361
sa(dp362
g4
F4.686046511627907
sg5
F2.456418398130473
sg6
I24
sg7
I430
sg8
S'Answer29.txt'
p363
sa(dp364
g4
F4.398058252427185
sg5
F2.8906941613513415
sg6
I5
sg7
I103
sg8
S'Answer30.txt'
p365
sa(dp366
g4
F5.042755344418052
sg5
F2.7532017223573804
sg6
I20
sg7
I421
sg8
S'Answer31.txt'
p367
sag366
a(dp368
g4
F4.415384615384616
sg5
F2.604093273127506
sg6
I6
sg7
I130
sg8
S'Answer32.txt'
p369
sa(dp370
g4
F5.754716981132075
sg5
F3.45540681261339
sg6
I5
sg7
I106
sg8
S'Answer33.txt'
p371
sa(dp372
g4
F4.817391304347826
sg5
F2.808628347558109
sg6
I4
sg7
I115
sg8
S'Answer34.txt'
p373
sa(dp374
g4
F5.336405529953917
sg5
F2.7778272817031007
sg6
I11
sg7
I217
sg8
S'Answer35.txt'
p375
sa(dp376
g4
F4.92170818505338
sg5
F3.0279114280162935
sg6
I14
sg7
I281
sg8
S'Answer36.txt'
p377
sa(dp378
g4
F4.815476190476191
sg5
F2.619311404464939
sg6
I26
sg7
I504
sg8
S'Answer38.txt'
p379
sa(dp380
g4
F4.672694394213382
sg5
F2.9009438151609936
sg6
I36
sg7
I553
sg8
S'Answer41.txt'
p381
sa(dp382
g4
F4.8059701492537314
sg5
F2.5406475022033654
sg6
I26
sg7
I402
sg8
S'Answer43.txt'
p383
sa(dp384
g4
F5.75626423690205
sg5
F6.210234823900955
sg6
I12
sg7
I439
sg8
S'Answer44.txt'
p385
sag384
a(dp386
g4
F4.691304347826087
sg5
F2.6119146805890754
sg6
I11
sg7
I230
sg8
S'Answer45.txt'
p387
sa(dp388
g4
F4.719178082191781
sg5
F3.5016170120217667
sg6
I19
sg7
I438
sg8
S'Answer46.txt'
p389
sag388
a(dp390
g4
F5.361370716510903
sg5
F2.991202571740346
sg6
I18
sg7
I321
sg8
S'Answer47.txt'
p391
sa(dp392
g4
F4.506912442396313
sg5
F2.3439692509665133
sg6
I8
sg7
I217
sg8
S'Answer49.txt'
p393
sa(dp394
g4
F4.895204262877442
sg5
F2.694253160245264
sg6
I31
sg7
I563
sg8
S'Answer50.txt'
p395
sas.